
AD9833FunctionGenerator.elf:     file format elf32-avr

Sections:
Idx Name          Size      VMA       LMA       File off  Algn
  0 .data         000002e0  00800100  0000461e  000046b2  2**0
                  CONTENTS, ALLOC, LOAD, DATA
  1 .text         0000461e  00000000  00000000  00000094  2**1
                  CONTENTS, ALLOC, LOAD, READONLY, CODE
  2 .bss          0000020b  008003e0  008003e0  00004992  2**0
                  ALLOC
  3 .comment      00000030  00000000  00000000  00004992  2**0
                  CONTENTS, READONLY
  4 .note.gnu.avr.deviceinfo 00000040  00000000  00000000  000049c4  2**2
                  CONTENTS, READONLY
  5 .debug_aranges 00000960  00000000  00000000  00004a04  2**0
                  CONTENTS, READONLY, DEBUGGING
  6 .debug_info   00016c1a  00000000  00000000  00005364  2**0
                  CONTENTS, READONLY, DEBUGGING
  7 .debug_abbrev 00003616  00000000  00000000  0001bf7e  2**0
                  CONTENTS, READONLY, DEBUGGING
  8 .debug_line   00006316  00000000  00000000  0001f594  2**0
                  CONTENTS, READONLY, DEBUGGING
  9 .debug_frame  000027e8  00000000  00000000  000258ac  2**2
                  CONTENTS, READONLY, DEBUGGING
 10 .debug_str    00004dbf  00000000  00000000  00028094  2**0
                  CONTENTS, READONLY, DEBUGGING
 11 .debug_loc    00011734  00000000  00000000  0002ce53  2**0
                  CONTENTS, READONLY, DEBUGGING
 12 .debug_ranges 00000b30  00000000  00000000  0003e587  2**0
                  CONTENTS, READONLY, DEBUGGING

Disassembly of section .text:

00000000 <__vectors>:
       0:	0c 94 ee 02 	jmp	0x5dc	; 0x5dc <__ctors_end>
       4:	0c 94 87 08 	jmp	0x110e	; 0x110e <__vector_1>
       8:	0c 94 ae 08 	jmp	0x115c	; 0x115c <__vector_2>
       c:	0c 94 d5 08 	jmp	0x11aa	; 0x11aa <__vector_3>
      10:	0c 94 38 09 	jmp	0x1270	; 0x1270 <__vector_4>
      14:	0c 94 9b 09 	jmp	0x1336	; 0x1336 <__vector_5>
      18:	0c 94 16 03 	jmp	0x62c	; 0x62c <__bad_interrupt>
      1c:	0c 94 16 03 	jmp	0x62c	; 0x62c <__bad_interrupt>
      20:	0c 94 16 03 	jmp	0x62c	; 0x62c <__bad_interrupt>
      24:	0c 94 16 03 	jmp	0x62c	; 0x62c <__bad_interrupt>
      28:	0c 94 16 03 	jmp	0x62c	; 0x62c <__bad_interrupt>
      2c:	0c 94 16 03 	jmp	0x62c	; 0x62c <__bad_interrupt>
      30:	0c 94 16 03 	jmp	0x62c	; 0x62c <__bad_interrupt>
      34:	0c 94 99 1f 	jmp	0x3f32	; 0x3f32 <__vector_13>
      38:	0c 94 16 03 	jmp	0x62c	; 0x62c <__bad_interrupt>
      3c:	0c 94 16 03 	jmp	0x62c	; 0x62c <__bad_interrupt>
      40:	0c 94 1d 12 	jmp	0x243a	; 0x243a <__vector_16>
      44:	0c 94 16 03 	jmp	0x62c	; 0x62c <__bad_interrupt>
      48:	0c 94 ae 0f 	jmp	0x1f5c	; 0x1f5c <__vector_18>
      4c:	0c 94 e0 0f 	jmp	0x1fc0	; 0x1fc0 <__vector_19>
      50:	0c 94 16 03 	jmp	0x62c	; 0x62c <__bad_interrupt>
      54:	0c 94 f7 03 	jmp	0x7ee	; 0x7ee <__vector_21>
      58:	0c 94 16 03 	jmp	0x62c	; 0x62c <__bad_interrupt>
      5c:	0c 94 16 03 	jmp	0x62c	; 0x62c <__bad_interrupt>
      60:	0c 94 37 21 	jmp	0x426e	; 0x426e <__vector_24>
      64:	0c 94 16 03 	jmp	0x62c	; 0x62c <__bad_interrupt>

00000068 <__trampolines_end>:
      68:	00 01       	movw	r0, r0
      6a:	02 03       	mulsu	r16, r18
      6c:	04 05       	cpc	r16, r4
      6e:	06 07       	cpc	r16, r22
      70:	00 01       	movw	r0, r0
      72:	02 03       	mulsu	r16, r18
      74:	04 05       	cpc	r16, r4
      76:	00 01       	movw	r0, r0
      78:	02 03       	mulsu	r16, r18
      7a:	04 05       	cpc	r16, r4

0000007c <digital_pin_to_timer_PGM>:
      7c:	00 00 00 08 00 02 01 00 00 03 04 07 00 00 00 00     ................
      8c:	00 00 00 00                                         ....

00000090 <digital_pin_to_bit_mask_PGM>:
      90:	01 02 04 08 10 20 40 80 01 02 04 08 10 20 01 02     ..... @...... ..
      a0:	04 08 10 20                                         ... 

000000a4 <digital_pin_to_port_PGM>:
      a4:	04 04 04 04 04 04 04 04 02 02 02 02 02 02 03 03     ................
      b4:	03 03 03 03                                         ....

000000b8 <port_to_input_PGM>:
      b8:	00 00 00 00 23 00 26 00 29 00                       ....#.&.).

000000c2 <port_to_output_PGM>:
      c2:	00 00 00 00 25 00 28 00 2b 00                       ....%.(.+.

000000cc <port_to_mode_PGM>:
      cc:	00 00 00 00 24 00 27 00 2a 00                       ....$.'.*.

000000d6 <_ZL4font>:
      d6:	00 00 00 00 00 3e 5b 4f 5b 3e 3e 6b 4f 6b 3e 1c     .....>[O[>>kOk>.
      e6:	3e 7c 3e 1c 18 3c 7e 3c 18 1c 57 7d 57 1c 1c 5e     >|>..<~<..W}W..^
      f6:	7f 5e 1c 00 18 3c 18 00 ff e7 c3 e7 ff 00 18 24     .^...<.........$
     106:	18 00 ff e7 db e7 ff 30 48 3a 06 0e 26 29 79 29     .......0H:..&)y)
     116:	26 40 7f 05 05 07 40 7f 05 25 3f 5a 3c e7 3c 5a     &@....@..%?Z<.<Z
     126:	7f 3e 1c 1c 08 08 1c 1c 3e 7f 14 22 7f 22 14 5f     .>......>.."."._
     136:	5f 00 5f 5f 06 09 7f 01 7f 00 66 89 95 6a 60 60     _.__......f..j``
     146:	60 60 60 94 a2 ff a2 94 08 04 7e 04 08 10 20 7e     ```.......~... ~
     156:	20 10 08 08 2a 1c 08 08 1c 2a 08 08 1e 10 10 10      ...*....*......
     166:	10 0c 1e 0c 1e 0c 30 38 3e 38 30 06 0e 3e 0e 06     ......08>80..>..
     176:	00 00 00 00 00 00 00 5f 00 00 00 07 00 07 00 14     ......._........
     186:	7f 14 7f 14 24 2a 7f 2a 12 23 13 08 64 62 36 49     ....$*.*.#..db6I
     196:	56 20 50 00 08 07 03 00 00 1c 22 41 00 00 41 22     V P......."A..A"
     1a6:	1c 00 2a 1c 7f 1c 2a 08 08 3e 08 08 00 80 70 30     ..*...*..>....p0
     1b6:	00 08 08 08 08 08 00 00 60 60 00 20 10 08 04 02     ........``. ....
     1c6:	3e 51 49 45 3e 00 42 7f 40 00 72 49 49 49 46 21     >QIE>.B.@.rIIIF!
     1d6:	41 49 4d 33 18 14 12 7f 10 27 45 45 45 39 3c 4a     AIM3.....'EEE9<J
     1e6:	49 49 31 41 21 11 09 07 36 49 49 49 36 46 49 49     II1A!...6III6FII
     1f6:	29 1e 00 00 14 00 00 00 40 34 00 00 00 08 14 22     ).......@4....."
     206:	41 14 14 14 14 14 00 41 22 14 08 02 01 59 09 06     A......A"....Y..
     216:	3e 41 5d 59 4e 7c 12 11 12 7c 7f 49 49 49 36 3e     >A]YN|...|.III6>
     226:	41 41 41 22 7f 41 41 41 3e 7f 49 49 49 41 7f 09     AAA".AAA>.IIIA..
     236:	09 09 01 3e 41 41 51 73 7f 08 08 08 7f 00 41 7f     ...>AAQs......A.
     246:	41 00 20 40 41 3f 01 7f 08 14 22 41 7f 40 40 40     A. @A?...."A.@@@
     256:	40 7f 02 1c 02 7f 7f 04 08 10 7f 3e 41 41 41 3e     @..........>AAA>
     266:	7f 09 09 09 06 3e 41 51 21 5e 7f 09 19 29 46 26     .....>AQ!^...)F&
     276:	49 49 49 32 03 01 7f 01 03 3f 40 40 40 3f 1f 20     III2.....?@@@?. 
     286:	40 20 1f 3f 40 38 40 3f 63 14 08 14 63 03 04 78     @ .?@8@?c...c..x
     296:	04 03 61 59 49 4d 43 00 7f 41 41 41 02 04 08 10     ..aYIMC..AAA....
     2a6:	20 00 41 41 41 7f 04 02 01 02 04 40 40 40 40 40      .AAA......@@@@@
     2b6:	00 03 07 08 00 20 54 54 78 40 7f 28 44 44 38 38     ..... TTx@.(DD88
     2c6:	44 44 44 28 38 44 44 28 7f 38 54 54 54 18 00 08     DDD(8DD(.8TTT...
     2d6:	7e 09 02 18 a4 a4 9c 78 7f 08 04 04 78 00 44 7d     ~......x....x.D}
     2e6:	40 00 20 40 40 3d 00 7f 10 28 44 00 00 41 7f 40     @. @@=...(D..A.@
     2f6:	00 7c 04 78 04 78 7c 08 04 04 78 38 44 44 44 38     .|.x.x|...x8DDD8
     306:	fc 18 24 24 18 18 24 24 18 fc 7c 08 04 04 08 48     ..$$..$$..|....H
     316:	54 54 54 24 04 04 3f 44 24 3c 40 40 20 7c 1c 20     TTT$..?D$<@@ |. 
     326:	40 20 1c 3c 40 30 40 3c 44 28 10 28 44 4c 90 90     @ .<@0@<D(.(DL..
     336:	90 7c 44 64 54 4c 44 00 08 36 41 00 00 00 77 00     .|DdTLD..6A...w.
     346:	00 00 41 36 08 00 02 01 02 04 02 3c 26 23 26 3c     ..A6.......<&#&<
     356:	1e a1 a1 61 12 3a 40 40 20 7a 38 54 54 55 59 21     ...a.:@@ z8TTUY!
     366:	55 55 79 41 22 54 54 78 42 21 55 54 78 40 20 54     UUyA"TTxB!UTx@ T
     376:	55 79 40 0c 1e 52 72 12 39 55 55 55 59 39 54 54     Uy@..Rr.9UUUY9TT
     386:	54 59 39 55 54 54 58 00 00 45 7c 41 00 02 45 7d     TY9UTTX..E|A..E}
     396:	42 00 01 45 7c 40 7d 12 11 12 7d f0 28 25 28 f0     B..E|@}...}.(%(.
     3a6:	7c 54 55 45 00 20 54 54 7c 54 7c 0a 09 7f 49 32     |TUE. TT|T|...I2
     3b6:	49 49 49 32 3a 44 44 44 3a 32 4a 48 48 30 3a 41     III2:DDD:2JHH0:A
     3c6:	41 21 7a 3a 42 40 20 78 00 9d a0 a0 7d 3d 42 42     A!z:B@ x....}=BB
     3d6:	42 3d 3d 40 40 40 3d 3c 24 ff 24 24 48 7e 49 43     B==@@@=<$.$$H~IC
     3e6:	66 2b 2f fc 2f 2b ff 09 29 f6 20 c0 88 7e 09 03     f+/./+..). ..~..
     3f6:	20 54 54 79 41 00 00 44 7d 41 30 48 48 4a 32 38      TTyA..D}A0HHJ28
     406:	40 40 22 7a 00 7a 0a 0a 72 7d 0d 19 31 7d 26 29     @@"z.z..r}..1}&)
     416:	29 2f 28 26 29 29 29 26 30 48 4d 40 20 38 08 08     )/(&)))&0HM@ 8..
     426:	08 08 08 08 08 08 38 2f 10 c8 ac ba 2f 10 28 34     ......8/..../.(4
     436:	fa 00 00 7b 00 00 08 14 2a 14 22 22 14 2a 14 08     ...{....*."".*..
     446:	55 00 55 00 55 aa 55 aa 55 aa ff 55 ff 55 ff 00     U.U.U.U.U..U.U..
     456:	00 00 ff 00 10 10 10 ff 00 14 14 14 ff 00 10 10     ................
     466:	ff 00 ff 10 10 f0 10 f0 14 14 14 fc 00 14 14 f7     ................
     476:	00 ff 00 00 ff 00 ff 14 14 f4 04 fc 14 14 17 10     ................
     486:	1f 10 10 1f 10 1f 14 14 14 1f 00 10 10 10 f0 00     ................
     496:	00 00 00 1f 10 10 10 10 1f 10 10 10 10 f0 10 00     ................
     4a6:	00 00 ff 10 10 10 10 10 10 10 10 10 ff 10 00 00     ................
     4b6:	00 ff 14 00 00 ff 00 ff 00 00 1f 10 17 00 00 fc     ................
     4c6:	04 f4 14 14 17 10 17 14 14 f4 04 f4 00 00 ff 00     ................
     4d6:	f7 14 14 14 14 14 14 14 f7 00 f7 14 14 14 17 14     ................
     4e6:	10 10 1f 10 1f 14 14 14 f4 14 10 10 f0 10 f0 00     ................
     4f6:	00 1f 10 1f 00 00 00 1f 14 00 00 00 fc 14 00 00     ................
     506:	f0 10 f0 10 10 ff 10 ff 14 14 14 ff 14 10 10 10     ................
     516:	1f 00 00 00 00 f0 10 ff ff ff ff ff f0 f0 f0 f0     ................
     526:	f0 ff ff ff 00 00 00 00 00 ff ff 0f 0f 0f 0f 0f     ................
     536:	38 44 44 38 44 fc 4a 4a 4a 34 7e 02 02 06 06 02     8DD8D.JJJ4~.....
     546:	7e 02 7e 02 63 55 49 41 63 38 44 44 3c 04 40 7e     ~.~.cUIAc8DD<.@~
     556:	20 1e 20 06 02 7e 02 02 99 a5 e7 a5 99 1c 2a 49      . ..~........*I
     566:	2a 1c 4c 72 01 72 4c 30 4a 4d 4d 30 30 48 78 48     *.Lr.rL0JMM00HxH
     576:	30 bc 62 5a 46 3d 3e 49 49 49 00 7e 01 01 01 7e     0.bZF=>III.~...~
     586:	2a 2a 2a 2a 2a 44 44 5f 44 44 40 51 4a 44 40 40     *****DD_DD@QJD@@
     596:	44 4a 51 40 00 00 ff 01 03 e0 80 ff 00 00 08 08     DJQ@............
     5a6:	6b 6b 08 36 12 36 24 36 06 0f 09 0f 06 00 00 18     kk.6.6$6........
     5b6:	18 00 00 00 10 10 00 30 40 ff 01 01 00 1f 01 01     .......0@.......
     5c6:	1e 00 19 1d 17 12 00 3c 3c 3c 3c 00 00 00 00 00     .......<<<<.....

000005d6 <__ctors_start>:
     5d6:	53 0c       	add	r5, r3
     5d8:	10 10       	cpse	r1, r0
     5da:	84 20       	and	r8, r4

000005dc <__ctors_end>:
     5dc:	11 24       	eor	r1, r1
     5de:	1f be       	out	0x3f, r1	; 63
     5e0:	cf ef       	ldi	r28, 0xFF	; 255
     5e2:	d8 e0       	ldi	r29, 0x08	; 8
     5e4:	de bf       	out	0x3e, r29	; 62
     5e6:	cd bf       	out	0x3d, r28	; 61

000005e8 <__do_copy_data>:
     5e8:	13 e0       	ldi	r17, 0x03	; 3
     5ea:	a0 e0       	ldi	r26, 0x00	; 0
     5ec:	b1 e0       	ldi	r27, 0x01	; 1
     5ee:	ee e1       	ldi	r30, 0x1E	; 30
     5f0:	f6 e4       	ldi	r31, 0x46	; 70
     5f2:	02 c0       	rjmp	.+4      	; 0x5f8 <__do_copy_data+0x10>
     5f4:	05 90       	lpm	r0, Z+
     5f6:	0d 92       	st	X+, r0
     5f8:	a0 3e       	cpi	r26, 0xE0	; 224
     5fa:	b1 07       	cpc	r27, r17
     5fc:	d9 f7       	brne	.-10     	; 0x5f4 <__do_copy_data+0xc>

000005fe <__do_clear_bss>:
     5fe:	25 e0       	ldi	r18, 0x05	; 5
     600:	a0 ee       	ldi	r26, 0xE0	; 224
     602:	b3 e0       	ldi	r27, 0x03	; 3
     604:	01 c0       	rjmp	.+2      	; 0x608 <.do_clear_bss_start>

00000606 <.do_clear_bss_loop>:
     606:	1d 92       	st	X+, r1

00000608 <.do_clear_bss_start>:
     608:	ab 3e       	cpi	r26, 0xEB	; 235
     60a:	b2 07       	cpc	r27, r18
     60c:	e1 f7       	brne	.-8      	; 0x606 <.do_clear_bss_loop>

0000060e <__do_global_ctors>:
     60e:	12 e0       	ldi	r17, 0x02	; 2
     610:	ce ee       	ldi	r28, 0xEE	; 238
     612:	d2 e0       	ldi	r29, 0x02	; 2
     614:	04 c0       	rjmp	.+8      	; 0x61e <__do_global_ctors+0x10>
     616:	21 97       	sbiw	r28, 0x01	; 1
     618:	fe 01       	movw	r30, r28
     61a:	0e 94 f3 22 	call	0x45e6	; 0x45e6 <__tablejump2__>
     61e:	cb 3e       	cpi	r28, 0xEB	; 235
     620:	d1 07       	cpc	r29, r17
     622:	c9 f7       	brne	.-14     	; 0x616 <__do_global_ctors+0x8>
     624:	0e 94 3e 10 	call	0x207c	; 0x207c <main>
     628:	0c 94 0d 23 	jmp	0x461a	; 0x461a <_exit>

0000062c <__bad_interrupt>:
     62c:	0c 94 00 00 	jmp	0	; 0x0 <__vectors>

00000630 <_Z8doPD2Intv>:
#endif
#ifndef EI_NOTINT1
if (arduinoPin == 3) {
  EIMSK &= ~_BV(1);
  EICRA &= (~_BV(2) & ~_BV(3));
  EIFR  |= _BV(1); // using a clue from the ATmega2560 datasheet.
     630:	cf 92       	push	r12
     632:	df 92       	push	r13
     634:	ef 92       	push	r14
     636:	ff 92       	push	r15
     638:	0f 93       	push	r16
     63a:	1f 93       	push	r17
     63c:	0e 94 67 12 	call	0x24ce	; 0x24ce <millis>
     640:	00 91 1a 04 	lds	r16, 0x041A	; 0x80041a <pd2_last_interrupt_time>
     644:	10 91 1b 04 	lds	r17, 0x041B	; 0x80041b <pd2_last_interrupt_time+0x1>
     648:	20 91 1c 04 	lds	r18, 0x041C	; 0x80041c <pd2_last_interrupt_time+0x2>
     64c:	30 91 1d 04 	lds	r19, 0x041D	; 0x80041d <pd2_last_interrupt_time+0x3>
     650:	6b 01       	movw	r12, r22
     652:	7c 01       	movw	r14, r24
     654:	c0 1a       	sub	r12, r16
     656:	d1 0a       	sbc	r13, r17
     658:	e2 0a       	sbc	r14, r18
     65a:	f3 0a       	sbc	r15, r19
     65c:	4d e2       	ldi	r20, 0x2D	; 45
     65e:	c4 16       	cp	r12, r20
     660:	41 e0       	ldi	r20, 0x01	; 1
     662:	d4 06       	cpc	r13, r20
     664:	e1 04       	cpc	r14, r1
     666:	f1 04       	cpc	r15, r1
     668:	e0 f0       	brcs	.+56     	; 0x6a2 <_Z8doPD2Intv+0x72>
     66a:	20 91 63 04 	lds	r18, 0x0463	; 0x800463 <mode>
     66e:	21 11       	cpse	r18, r1
     670:	14 c0       	rjmp	.+40     	; 0x69a <_Z8doPD2Intv+0x6a>
     672:	21 e0       	ldi	r18, 0x01	; 1
     674:	20 93 63 04 	sts	0x0463, r18	; 0x800463 <mode>
     678:	00 91 59 04 	lds	r16, 0x0459	; 0x800459 <selectedLowerFreq>
     67c:	10 91 5a 04 	lds	r17, 0x045A	; 0x80045a <selectedLowerFreq+0x1>
     680:	20 91 5b 04 	lds	r18, 0x045B	; 0x80045b <selectedLowerFreq+0x2>
     684:	30 91 5c 04 	lds	r19, 0x045C	; 0x80045c <selectedLowerFreq+0x3>
     688:	00 93 64 04 	sts	0x0464, r16	; 0x800464 <sweepcounter>
     68c:	10 93 65 04 	sts	0x0465, r17	; 0x800465 <sweepcounter+0x1>
     690:	20 93 66 04 	sts	0x0466, r18	; 0x800466 <sweepcounter+0x2>
     694:	30 93 67 04 	sts	0x0467, r19	; 0x800467 <sweepcounter+0x3>
     698:	04 c0       	rjmp	.+8      	; 0x6a2 <_Z8doPD2Intv+0x72>
     69a:	21 30       	cpi	r18, 0x01	; 1
     69c:	11 f4       	brne	.+4      	; 0x6a2 <_Z8doPD2Intv+0x72>
     69e:	10 92 63 04 	sts	0x0463, r1	; 0x800463 <mode>
     6a2:	60 93 1a 04 	sts	0x041A, r22	; 0x80041a <pd2_last_interrupt_time>
     6a6:	70 93 1b 04 	sts	0x041B, r23	; 0x80041b <pd2_last_interrupt_time+0x1>
     6aa:	80 93 1c 04 	sts	0x041C, r24	; 0x80041c <pd2_last_interrupt_time+0x2>
     6ae:	90 93 1d 04 	sts	0x041D, r25	; 0x80041d <pd2_last_interrupt_time+0x3>
     6b2:	1f 91       	pop	r17
     6b4:	0f 91       	pop	r16
     6b6:	ff 90       	pop	r15
     6b8:	ef 90       	pop	r14
     6ba:	df 90       	pop	r13
     6bc:	cf 90       	pop	r12
     6be:	08 95       	ret

000006c0 <_Z8doPD5Intv>:
     6c0:	cf 92       	push	r12
     6c2:	df 92       	push	r13
     6c4:	ef 92       	push	r14
     6c6:	ff 92       	push	r15
     6c8:	0f 93       	push	r16
     6ca:	1f 93       	push	r17
     6cc:	0e 94 67 12 	call	0x24ce	; 0x24ce <millis>
     6d0:	00 91 0e 04 	lds	r16, 0x040E	; 0x80040e <pd5_last_interrupt_time>
     6d4:	10 91 0f 04 	lds	r17, 0x040F	; 0x80040f <pd5_last_interrupt_time+0x1>
     6d8:	20 91 10 04 	lds	r18, 0x0410	; 0x800410 <pd5_last_interrupt_time+0x2>
     6dc:	30 91 11 04 	lds	r19, 0x0411	; 0x800411 <pd5_last_interrupt_time+0x3>
     6e0:	6b 01       	movw	r12, r22
     6e2:	7c 01       	movw	r14, r24
     6e4:	c0 1a       	sub	r12, r16
     6e6:	d1 0a       	sbc	r13, r17
     6e8:	e2 0a       	sbc	r14, r18
     6ea:	f3 0a       	sbc	r15, r19
     6ec:	4d e2       	ldi	r20, 0x2D	; 45
     6ee:	c4 16       	cp	r12, r20
     6f0:	41 e0       	ldi	r20, 0x01	; 1
     6f2:	d4 06       	cpc	r13, r20
     6f4:	e1 04       	cpc	r14, r1
     6f6:	f1 04       	cpc	r15, r1
     6f8:	e8 f1       	brcs	.+122    	; 0x774 <_Z8doPD5Intv+0xb4>
     6fa:	00 91 06 01 	lds	r16, 0x0106	; 0x800106 <maxFreq>
     6fe:	10 91 07 01 	lds	r17, 0x0107	; 0x800107 <maxFreq+0x1>
     702:	20 91 08 01 	lds	r18, 0x0108	; 0x800108 <maxFreq+0x2>
     706:	30 91 09 01 	lds	r19, 0x0109	; 0x800109 <maxFreq+0x3>
     70a:	08 3e       	cpi	r16, 0xE8	; 232
     70c:	13 40       	sbci	r17, 0x03	; 3
     70e:	21 05       	cpc	r18, r1
     710:	31 05       	cpc	r19, r1
     712:	29 f4       	brne	.+10     	; 0x71e <_Z8doPD5Intv+0x5e>
     714:	00 e1       	ldi	r16, 0x10	; 16
     716:	17 e2       	ldi	r17, 0x27	; 39
     718:	20 e0       	ldi	r18, 0x00	; 0
     71a:	30 e0       	ldi	r19, 0x00	; 0
     71c:	23 c0       	rjmp	.+70     	; 0x764 <_Z8doPD5Intv+0xa4>
     71e:	00 91 06 01 	lds	r16, 0x0106	; 0x800106 <maxFreq>
     722:	10 91 07 01 	lds	r17, 0x0107	; 0x800107 <maxFreq+0x1>
     726:	20 91 08 01 	lds	r18, 0x0108	; 0x800108 <maxFreq+0x2>
     72a:	30 91 09 01 	lds	r19, 0x0109	; 0x800109 <maxFreq+0x3>
     72e:	00 31       	cpi	r16, 0x10	; 16
     730:	17 42       	sbci	r17, 0x27	; 39
     732:	21 05       	cpc	r18, r1
     734:	31 05       	cpc	r19, r1
     736:	29 f4       	brne	.+10     	; 0x742 <_Z8doPD5Intv+0x82>
     738:	00 ea       	ldi	r16, 0xA0	; 160
     73a:	16 e8       	ldi	r17, 0x86	; 134
     73c:	21 e0       	ldi	r18, 0x01	; 1
     73e:	30 e0       	ldi	r19, 0x00	; 0
     740:	11 c0       	rjmp	.+34     	; 0x764 <_Z8doPD5Intv+0xa4>
     742:	00 91 06 01 	lds	r16, 0x0106	; 0x800106 <maxFreq>
     746:	10 91 07 01 	lds	r17, 0x0107	; 0x800107 <maxFreq+0x1>
     74a:	20 91 08 01 	lds	r18, 0x0108	; 0x800108 <maxFreq+0x2>
     74e:	30 91 09 01 	lds	r19, 0x0109	; 0x800109 <maxFreq+0x3>
     752:	00 3a       	cpi	r16, 0xA0	; 160
     754:	16 48       	sbci	r17, 0x86	; 134
     756:	21 40       	sbci	r18, 0x01	; 1
     758:	31 05       	cpc	r19, r1
     75a:	61 f4       	brne	.+24     	; 0x774 <_Z8doPD5Intv+0xb4>
     75c:	08 ee       	ldi	r16, 0xE8	; 232
     75e:	13 e0       	ldi	r17, 0x03	; 3
     760:	20 e0       	ldi	r18, 0x00	; 0
     762:	30 e0       	ldi	r19, 0x00	; 0
     764:	00 93 06 01 	sts	0x0106, r16	; 0x800106 <maxFreq>
     768:	10 93 07 01 	sts	0x0107, r17	; 0x800107 <maxFreq+0x1>
     76c:	20 93 08 01 	sts	0x0108, r18	; 0x800108 <maxFreq+0x2>
     770:	30 93 09 01 	sts	0x0109, r19	; 0x800109 <maxFreq+0x3>
     774:	60 93 0e 04 	sts	0x040E, r22	; 0x80040e <pd5_last_interrupt_time>
     778:	70 93 0f 04 	sts	0x040F, r23	; 0x80040f <pd5_last_interrupt_time+0x1>
     77c:	80 93 10 04 	sts	0x0410, r24	; 0x800410 <pd5_last_interrupt_time+0x2>
     780:	90 93 11 04 	sts	0x0411, r25	; 0x800411 <pd5_last_interrupt_time+0x3>
     784:	1f 91       	pop	r17
     786:	0f 91       	pop	r16
     788:	ff 90       	pop	r15
     78a:	ef 90       	pop	r14
     78c:	df 90       	pop	r13
     78e:	cf 90       	pop	r12
     790:	08 95       	ret

00000792 <_Z8doPD6Intv>:
     792:	0e 94 67 12 	call	0x24ce	; 0x24ce <millis>
     796:	60 93 12 04 	sts	0x0412, r22	; 0x800412 <pd6_last_interrupt_time>
     79a:	70 93 13 04 	sts	0x0413, r23	; 0x800413 <pd6_last_interrupt_time+0x1>
     79e:	80 93 14 04 	sts	0x0414, r24	; 0x800414 <pd6_last_interrupt_time+0x2>
     7a2:	90 93 15 04 	sts	0x0415, r25	; 0x800415 <pd6_last_interrupt_time+0x3>
     7a6:	08 95       	ret

000007a8 <_ZN8SPIClass14endTransactionEv.part.0>:
     7a8:	9f b7       	in	r25, 0x3f	; 63
     7aa:	f8 94       	cli
     7ac:	20 91 24 05 	lds	r18, 0x0524	; 0x800524 <_ZN8SPIClass13interruptModeE>
     7b0:	80 91 22 05 	lds	r24, 0x0522	; 0x800522 <_ZN8SPIClass13interruptSaveE>
     7b4:	21 30       	cpi	r18, 0x01	; 1
     7b6:	19 f4       	brne	.+6      	; 0x7be <_ZN8SPIClass14endTransactionEv.part.0+0x16>
     7b8:	8d bb       	out	0x1d, r24	; 29
     7ba:	9f bf       	out	0x3f, r25	; 63
     7bc:	08 95       	ret
     7be:	8f bf       	out	0x3f, r24	; 63
     7c0:	08 95       	ret

000007c2 <_Z9adc_setupv>:
     7c2:	10 92 7c 00 	sts	0x007C, r1	; 0x80007c <__TEXT_REGION_LENGTH__+0x7e007c>
     7c6:	ea e7       	ldi	r30, 0x7A	; 122
     7c8:	f0 e0       	ldi	r31, 0x00	; 0
     7ca:	80 81       	ld	r24, Z
     7cc:	80 68       	ori	r24, 0x80	; 128
     7ce:	80 83       	st	Z, r24
     7d0:	80 81       	ld	r24, Z
     7d2:	80 62       	ori	r24, 0x20	; 32
     7d4:	80 83       	st	Z, r24
     7d6:	80 81       	ld	r24, Z
     7d8:	88 60       	ori	r24, 0x08	; 8
     7da:	80 83       	st	Z, r24
     7dc:	80 81       	ld	r24, Z
     7de:	81 60       	ori	r24, 0x01	; 1
     7e0:	80 83       	st	Z, r24
     7e2:	10 92 7b 00 	sts	0x007B, r1	; 0x80007b <__TEXT_REGION_LENGTH__+0x7e007b>
     7e6:	80 81       	ld	r24, Z
     7e8:	80 64       	ori	r24, 0x40	; 64
     7ea:	80 83       	st	Z, r24
     7ec:	08 95       	ret

000007ee <__vector_21>:
     7ee:	1f 92       	push	r1
     7f0:	0f 92       	push	r0
     7f2:	0f b6       	in	r0, 0x3f	; 63
     7f4:	0f 92       	push	r0
     7f6:	11 24       	eor	r1, r1
     7f8:	cf 92       	push	r12
     7fa:	df 92       	push	r13
     7fc:	ef 92       	push	r14
     7fe:	ff 92       	push	r15
     800:	2f 93       	push	r18
     802:	3f 93       	push	r19
     804:	4f 93       	push	r20
     806:	5f 93       	push	r21
     808:	6f 93       	push	r22
     80a:	7f 93       	push	r23
     80c:	8f 93       	push	r24
     80e:	9f 93       	push	r25
     810:	af 93       	push	r26
     812:	bf 93       	push	r27
     814:	ef 93       	push	r30
     816:	ff 93       	push	r31
     818:	60 91 78 00 	lds	r22, 0x0078	; 0x800078 <__TEXT_REGION_LENGTH__+0x7e0078>
     81c:	70 e0       	ldi	r23, 0x00	; 0
     81e:	80 e0       	ldi	r24, 0x00	; 0
     820:	90 e0       	ldi	r25, 0x00	; 0
     822:	0e 94 75 0d 	call	0x1aea	; 0x1aea <__floatunsisf>
     826:	6b 01       	movw	r12, r22
     828:	7c 01       	movw	r14, r24
     82a:	60 93 78 04 	sts	0x0478, r22	; 0x800478 <rawAdcValue>
     82e:	70 93 79 04 	sts	0x0479, r23	; 0x800479 <rawAdcValue+0x1>
     832:	80 93 7a 04 	sts	0x047A, r24	; 0x80047a <rawAdcValue+0x2>
     836:	90 93 7b 04 	sts	0x047B, r25	; 0x80047b <rawAdcValue+0x3>
     83a:	60 91 79 00 	lds	r22, 0x0079	; 0x800079 <__TEXT_REGION_LENGTH__+0x7e0079>
     83e:	70 e0       	ldi	r23, 0x00	; 0
     840:	76 2f       	mov	r23, r22
     842:	66 27       	eor	r22, r22
     844:	07 2e       	mov	r0, r23
     846:	00 0c       	add	r0, r0
     848:	88 0b       	sbc	r24, r24
     84a:	99 0b       	sbc	r25, r25
     84c:	0e 94 77 0d 	call	0x1aee	; 0x1aee <__floatsisf>
     850:	a7 01       	movw	r20, r14
     852:	96 01       	movw	r18, r12
     854:	0e 94 61 0c 	call	0x18c2	; 0x18c2 <__addsf3>
     858:	60 93 78 04 	sts	0x0478, r22	; 0x800478 <rawAdcValue>
     85c:	70 93 79 04 	sts	0x0479, r23	; 0x800479 <rawAdcValue+0x1>
     860:	80 93 7a 04 	sts	0x047A, r24	; 0x80047a <rawAdcValue+0x2>
     864:	90 93 7b 04 	sts	0x047B, r25	; 0x80047b <rawAdcValue+0x3>
     868:	20 91 7c 00 	lds	r18, 0x007C	; 0x80007c <__TEXT_REGION_LENGTH__+0x7e007c>
     86c:	22 30       	cpi	r18, 0x02	; 2
     86e:	11 f1       	breq	.+68     	; 0x8b4 <__vector_21+0xc6>
     870:	60 f4       	brcc	.+24     	; 0x88a <__vector_21+0x9c>
     872:	22 23       	and	r18, r18
     874:	b9 f0       	breq	.+46     	; 0x8a4 <__vector_21+0xb6>
     876:	21 30       	cpi	r18, 0x01	; 1
     878:	79 f5       	brne	.+94     	; 0x8d8 <__vector_21+0xea>
     87a:	0e 94 3f 0d 	call	0x1a7e	; 0x1a7e <__fixsfsi>
     87e:	70 93 77 04 	sts	0x0477, r23	; 0x800477 <ADCInput+0x1>
     882:	60 93 76 04 	sts	0x0476, r22	; 0x800476 <ADCInput>
     886:	82 e0       	ldi	r24, 0x02	; 2
     888:	1c c0       	rjmp	.+56     	; 0x8c2 <__vector_21+0xd4>
     88a:	23 30       	cpi	r18, 0x03	; 3
     88c:	e9 f0       	breq	.+58     	; 0x8c8 <__vector_21+0xda>
     88e:	26 30       	cpi	r18, 0x06	; 6
     890:	19 f5       	brne	.+70     	; 0x8d8 <__vector_21+0xea>
     892:	0e 94 3f 0d 	call	0x1a7e	; 0x1a7e <__fixsfsi>
     896:	70 93 71 04 	sts	0x0471, r23	; 0x800471 <ADCInput3+0x1>
     89a:	60 93 70 04 	sts	0x0470, r22	; 0x800470 <ADCInput3>
     89e:	10 92 7c 00 	sts	0x007C, r1	; 0x80007c <__TEXT_REGION_LENGTH__+0x7e007c>
     8a2:	1a c0       	rjmp	.+52     	; 0x8d8 <__vector_21+0xea>
     8a4:	0e 94 3f 0d 	call	0x1a7e	; 0x1a7e <__fixsfsi>
     8a8:	70 93 6f 04 	sts	0x046F, r23	; 0x80046f <ADCInput6+0x1>
     8ac:	60 93 6e 04 	sts	0x046E, r22	; 0x80046e <ADCInput6>
     8b0:	81 e0       	ldi	r24, 0x01	; 1
     8b2:	07 c0       	rjmp	.+14     	; 0x8c2 <__vector_21+0xd4>
     8b4:	0e 94 3f 0d 	call	0x1a7e	; 0x1a7e <__fixsfsi>
     8b8:	70 93 75 04 	sts	0x0475, r23	; 0x800475 <ADCInput1+0x1>
     8bc:	60 93 74 04 	sts	0x0474, r22	; 0x800474 <ADCInput1>
     8c0:	83 e0       	ldi	r24, 0x03	; 3
     8c2:	80 93 7c 00 	sts	0x007C, r24	; 0x80007c <__TEXT_REGION_LENGTH__+0x7e007c>
     8c6:	08 c0       	rjmp	.+16     	; 0x8d8 <__vector_21+0xea>
     8c8:	0e 94 3f 0d 	call	0x1a7e	; 0x1a7e <__fixsfsi>
     8cc:	70 93 73 04 	sts	0x0473, r23	; 0x800473 <ADCInput2+0x1>
     8d0:	60 93 72 04 	sts	0x0472, r22	; 0x800472 <ADCInput2>
     8d4:	86 e0       	ldi	r24, 0x06	; 6
     8d6:	f5 cf       	rjmp	.-22     	; 0x8c2 <__vector_21+0xd4>
     8d8:	80 91 7a 00 	lds	r24, 0x007A	; 0x80007a <__TEXT_REGION_LENGTH__+0x7e007a>
     8dc:	80 64       	ori	r24, 0x40	; 64
     8de:	80 93 7a 00 	sts	0x007A, r24	; 0x80007a <__TEXT_REGION_LENGTH__+0x7e007a>
     8e2:	ff 91       	pop	r31
     8e4:	ef 91       	pop	r30
     8e6:	bf 91       	pop	r27
     8e8:	af 91       	pop	r26
     8ea:	9f 91       	pop	r25
     8ec:	8f 91       	pop	r24
     8ee:	7f 91       	pop	r23
     8f0:	6f 91       	pop	r22
     8f2:	5f 91       	pop	r21
     8f4:	4f 91       	pop	r20
     8f6:	3f 91       	pop	r19
     8f8:	2f 91       	pop	r18
     8fa:	ff 90       	pop	r15
     8fc:	ef 90       	pop	r14
     8fe:	df 90       	pop	r13
     900:	cf 90       	pop	r12
     902:	0f 90       	pop	r0
     904:	0f be       	out	0x3f, r0	; 63
     906:	0f 90       	pop	r0
     908:	1f 90       	pop	r1
     90a:	18 95       	reti

0000090c <_ZN8SPIClass16beginTransactionE11SPISettings>:
     90c:	20 91 24 05 	lds	r18, 0x0524	; 0x800524 <_ZN8SPIClass13interruptModeE>
     910:	22 23       	and	r18, r18
     912:	99 f0       	breq	.+38     	; 0x93a <_ZN8SPIClass16beginTransactionE11SPISettings+0x2e>
     914:	4f b7       	in	r20, 0x3f	; 63
     916:	f8 94       	cli
     918:	20 91 24 05 	lds	r18, 0x0524	; 0x800524 <_ZN8SPIClass13interruptModeE>
     91c:	21 30       	cpi	r18, 0x01	; 1
     91e:	59 f4       	brne	.+22     	; 0x936 <_ZN8SPIClass16beginTransactionE11SPISettings+0x2a>
     920:	2d b3       	in	r18, 0x1d	; 29
     922:	20 93 22 05 	sts	0x0522, r18	; 0x800522 <_ZN8SPIClass13interruptSaveE>
     926:	3d b3       	in	r19, 0x1d	; 29
     928:	20 91 23 05 	lds	r18, 0x0523	; 0x800523 <_ZN8SPIClass13interruptMaskE>
     92c:	20 95       	com	r18
     92e:	23 23       	and	r18, r19
     930:	2d bb       	out	0x1d, r18	; 29
     932:	4f bf       	out	0x3f, r20	; 63
     934:	02 c0       	rjmp	.+4      	; 0x93a <_ZN8SPIClass16beginTransactionE11SPISettings+0x2e>
     936:	40 93 22 05 	sts	0x0522, r20	; 0x800522 <_ZN8SPIClass13interruptSaveE>
     93a:	8c bd       	out	0x2c, r24	; 44
     93c:	9d bd       	out	0x2d, r25	; 45
     93e:	08 95       	ret

00000940 <_ZN8SPIClass8transferEh>:
     940:	8e bd       	out	0x2e, r24	; 46
     942:	00 00       	nop
     944:	0d b4       	in	r0, 0x2d	; 45
     946:	07 fe       	sbrs	r0, 7
     948:	fd cf       	rjmp	.-6      	; 0x944 <_ZN8SPIClass8transferEh+0x4>
     94a:	8e b5       	in	r24, 0x2e	; 46
     94c:	08 95       	ret

0000094e <_ZN8SPIClass10transfer16Ej>:
     94e:	0c b4       	in	r0, 0x2c	; 44
     950:	05 fc       	sbrc	r0, 5
     952:	0d c0       	rjmp	.+26     	; 0x96e <_ZN8SPIClass10transfer16Ej+0x20>
     954:	9e bd       	out	0x2e, r25	; 46
     956:	00 00       	nop
     958:	0d b4       	in	r0, 0x2d	; 45
     95a:	07 fe       	sbrs	r0, 7
     95c:	fd cf       	rjmp	.-6      	; 0x958 <_ZN8SPIClass10transfer16Ej+0xa>
     95e:	9e b5       	in	r25, 0x2e	; 46
     960:	8e bd       	out	0x2e, r24	; 46
     962:	00 00       	nop
     964:	0d b4       	in	r0, 0x2d	; 45
     966:	07 fe       	sbrs	r0, 7
     968:	fd cf       	rjmp	.-6      	; 0x964 <_ZN8SPIClass10transfer16Ej+0x16>
     96a:	8e b5       	in	r24, 0x2e	; 46
     96c:	08 95       	ret
     96e:	8e bd       	out	0x2e, r24	; 46
     970:	00 00       	nop
     972:	0d b4       	in	r0, 0x2d	; 45
     974:	07 fe       	sbrs	r0, 7
     976:	fd cf       	rjmp	.-6      	; 0x972 <_ZN8SPIClass10transfer16Ej+0x24>
     978:	8e b5       	in	r24, 0x2e	; 46
     97a:	9e bd       	out	0x2e, r25	; 46
     97c:	00 00       	nop
     97e:	0d b4       	in	r0, 0x2d	; 45
     980:	07 fe       	sbrs	r0, 7
     982:	fd cf       	rjmp	.-6      	; 0x97e <_ZN8SPIClass10transfer16Ej+0x30>
     984:	9e b5       	in	r25, 0x2e	; 46
     986:	08 95       	ret

00000988 <_Z17digipot_write_spiiih>:
     988:	cf 93       	push	r28
     98a:	df 93       	push	r29
     98c:	d8 2f       	mov	r29, r24
     98e:	c6 2f       	mov	r28, r22
     990:	88 e5       	ldi	r24, 0x58	; 88
     992:	90 e0       	ldi	r25, 0x00	; 0
     994:	0e 94 86 04 	call	0x90c	; 0x90c <_ZN8SPIClass16beginTransactionE11SPISettings>
     998:	60 e0       	ldi	r22, 0x00	; 0
     99a:	89 e0       	ldi	r24, 0x09	; 9
     99c:	0e 94 74 13 	call	0x26e8	; 0x26e8 <digitalWrite>
     9a0:	8d 2f       	mov	r24, r29
     9a2:	0e 94 a0 04 	call	0x940	; 0x940 <_ZN8SPIClass8transferEh>
     9a6:	8c 2f       	mov	r24, r28
     9a8:	0e 94 a0 04 	call	0x940	; 0x940 <_ZN8SPIClass8transferEh>
     9ac:	61 e0       	ldi	r22, 0x01	; 1
     9ae:	89 e0       	ldi	r24, 0x09	; 9
     9b0:	0e 94 74 13 	call	0x26e8	; 0x26e8 <digitalWrite>
     9b4:	80 91 24 05 	lds	r24, 0x0524	; 0x800524 <_ZN8SPIClass13interruptModeE>
     9b8:	88 23       	and	r24, r24
     9ba:	21 f0       	breq	.+8      	; 0x9c4 <_Z17digipot_write_spiiih+0x3c>
     9bc:	df 91       	pop	r29
     9be:	cf 91       	pop	r28
     9c0:	0c 94 d4 03 	jmp	0x7a8	; 0x7a8 <_ZN8SPIClass14endTransactionEv.part.0>
     9c4:	df 91       	pop	r29
     9c6:	cf 91       	pop	r28
     9c8:	08 95       	ret

000009ca <_Z8doPD3Intv>:
     9ca:	cf 92       	push	r12
     9cc:	df 92       	push	r13
     9ce:	ef 92       	push	r14
     9d0:	ff 92       	push	r15
     9d2:	0e 94 67 12 	call	0x24ce	; 0x24ce <millis>
     9d6:	6b 01       	movw	r12, r22
     9d8:	7c 01       	movw	r14, r24
     9da:	80 91 16 04 	lds	r24, 0x0416	; 0x800416 <pd3_last_interrupt_time>
     9de:	90 91 17 04 	lds	r25, 0x0417	; 0x800417 <pd3_last_interrupt_time+0x1>
     9e2:	a0 91 18 04 	lds	r26, 0x0418	; 0x800418 <pd3_last_interrupt_time+0x2>
     9e6:	b0 91 19 04 	lds	r27, 0x0419	; 0x800419 <pd3_last_interrupt_time+0x3>
     9ea:	a7 01       	movw	r20, r14
     9ec:	96 01       	movw	r18, r12
     9ee:	28 1b       	sub	r18, r24
     9f0:	39 0b       	sbc	r19, r25
     9f2:	4a 0b       	sbc	r20, r26
     9f4:	5b 0b       	sbc	r21, r27
     9f6:	da 01       	movw	r26, r20
     9f8:	c9 01       	movw	r24, r18
     9fa:	8d 32       	cpi	r24, 0x2D	; 45
     9fc:	91 40       	sbci	r25, 0x01	; 1
     9fe:	a1 05       	cpc	r26, r1
     a00:	b1 05       	cpc	r27, r1
     a02:	08 f4       	brcc	.+2      	; 0xa06 <_Z8doPD3Intv+0x3c>
     a04:	42 c0       	rjmp	.+132    	; 0xa8a <_Z8doPD3Intv+0xc0>
     a06:	80 91 69 04 	lds	r24, 0x0469	; 0x800469 <func>
     a0a:	81 11       	cpse	r24, r1
     a0c:	04 c0       	rjmp	.+8      	; 0xa16 <_Z8doPD3Intv+0x4c>
     a0e:	81 e0       	ldi	r24, 0x01	; 1
     a10:	80 93 69 04 	sts	0x0469, r24	; 0x800469 <func>
     a14:	20 c0       	rjmp	.+64     	; 0xa56 <_Z8doPD3Intv+0x8c>
     a16:	81 30       	cpi	r24, 0x01	; 1
     a18:	d1 f4       	brne	.+52     	; 0xa4e <_Z8doPD3Intv+0x84>
     a1a:	82 e0       	ldi	r24, 0x02	; 2
     a1c:	80 93 69 04 	sts	0x0469, r24	; 0x800469 <func>
     a20:	80 e0       	ldi	r24, 0x00	; 0
     a22:	90 e0       	ldi	r25, 0x00	; 0
     a24:	a0 e8       	ldi	r26, 0x80	; 128
     a26:	bf e3       	ldi	r27, 0x3F	; 63
     a28:	80 93 02 01 	sts	0x0102, r24	; 0x800102 <gainCompensation>
     a2c:	90 93 03 01 	sts	0x0103, r25	; 0x800103 <gainCompensation+0x1>
     a30:	a0 93 04 01 	sts	0x0104, r26	; 0x800104 <gainCompensation+0x2>
     a34:	b0 93 05 01 	sts	0x0105, r27	; 0x800105 <gainCompensation+0x3>
     a38:	49 e0       	ldi	r20, 0x09	; 9
     a3a:	6e e1       	ldi	r22, 0x1E	; 30
     a3c:	70 e0       	ldi	r23, 0x00	; 0
     a3e:	81 e1       	ldi	r24, 0x11	; 17
     a40:	90 e0       	ldi	r25, 0x00	; 0
     a42:	0e 94 c4 04 	call	0x988	; 0x988 <_Z17digipot_write_spiiih>
     a46:	49 e0       	ldi	r20, 0x09	; 9
     a48:	6a e0       	ldi	r22, 0x0A	; 10
     a4a:	70 e0       	ldi	r23, 0x00	; 0
     a4c:	1a c0       	rjmp	.+52     	; 0xa82 <_Z8doPD3Intv+0xb8>
     a4e:	82 30       	cpi	r24, 0x02	; 2
     a50:	e1 f4       	brne	.+56     	; 0xa8a <_Z8doPD3Intv+0xc0>
     a52:	10 92 69 04 	sts	0x0469, r1	; 0x800469 <func>
     a56:	80 e0       	ldi	r24, 0x00	; 0
     a58:	90 e0       	ldi	r25, 0x00	; 0
     a5a:	a0 e8       	ldi	r26, 0x80	; 128
     a5c:	bf e3       	ldi	r27, 0x3F	; 63
     a5e:	80 93 02 01 	sts	0x0102, r24	; 0x800102 <gainCompensation>
     a62:	90 93 03 01 	sts	0x0103, r25	; 0x800103 <gainCompensation+0x1>
     a66:	a0 93 04 01 	sts	0x0104, r26	; 0x800104 <gainCompensation+0x2>
     a6a:	b0 93 05 01 	sts	0x0105, r27	; 0x800105 <gainCompensation+0x3>
     a6e:	49 e0       	ldi	r20, 0x09	; 9
     a70:	6f ef       	ldi	r22, 0xFF	; 255
     a72:	70 e0       	ldi	r23, 0x00	; 0
     a74:	81 e1       	ldi	r24, 0x11	; 17
     a76:	90 e0       	ldi	r25, 0x00	; 0
     a78:	0e 94 c4 04 	call	0x988	; 0x988 <_Z17digipot_write_spiiih>
     a7c:	49 e0       	ldi	r20, 0x09	; 9
     a7e:	67 e5       	ldi	r22, 0x57	; 87
     a80:	70 e0       	ldi	r23, 0x00	; 0
     a82:	82 e1       	ldi	r24, 0x12	; 18
     a84:	90 e0       	ldi	r25, 0x00	; 0
     a86:	0e 94 c4 04 	call	0x988	; 0x988 <_Z17digipot_write_spiiih>
     a8a:	c0 92 16 04 	sts	0x0416, r12	; 0x800416 <pd3_last_interrupt_time>
     a8e:	d0 92 17 04 	sts	0x0417, r13	; 0x800417 <pd3_last_interrupt_time+0x1>
     a92:	e0 92 18 04 	sts	0x0418, r14	; 0x800418 <pd3_last_interrupt_time+0x2>
     a96:	f0 92 19 04 	sts	0x0419, r15	; 0x800419 <pd3_last_interrupt_time+0x3>
     a9a:	ff 90       	pop	r15
     a9c:	ef 90       	pop	r14
     a9e:	df 90       	pop	r13
     aa0:	cf 90       	pop	r12
     aa2:	08 95       	ret

00000aa4 <_Z13write_dds_spiv>:
     aa4:	61 e0       	ldi	r22, 0x01	; 1
     aa6:	8d e0       	ldi	r24, 0x0D	; 13
     aa8:	0e 94 74 13 	call	0x26e8	; 0x26e8 <digitalWrite>
     aac:	60 e0       	ldi	r22, 0x00	; 0
     aae:	8b e0       	ldi	r24, 0x0B	; 11
     ab0:	0e 94 74 13 	call	0x26e8	; 0x26e8 <digitalWrite>
     ab4:	61 e0       	ldi	r22, 0x01	; 1
     ab6:	8a e0       	ldi	r24, 0x0A	; 10
     ab8:	0e 94 74 13 	call	0x26e8	; 0x26e8 <digitalWrite>
     abc:	60 e0       	ldi	r22, 0x00	; 0
     abe:	8a e0       	ldi	r24, 0x0A	; 10
     ac0:	0e 94 74 13 	call	0x26e8	; 0x26e8 <digitalWrite>
     ac4:	88 e5       	ldi	r24, 0x58	; 88
     ac6:	90 e0       	ldi	r25, 0x00	; 0
     ac8:	0e 94 86 04 	call	0x90c	; 0x90c <_ZN8SPIClass16beginTransactionE11SPISettings>
     acc:	80 91 6a 04 	lds	r24, 0x046A	; 0x80046a <dds_out_data>
     ad0:	90 91 6b 04 	lds	r25, 0x046B	; 0x80046b <dds_out_data+0x1>
     ad4:	a0 91 6c 04 	lds	r26, 0x046C	; 0x80046c <dds_out_data+0x2>
     ad8:	b0 91 6d 04 	lds	r27, 0x046D	; 0x80046d <dds_out_data+0x3>
     adc:	0e 94 a7 04 	call	0x94e	; 0x94e <_ZN8SPIClass10transfer16Ej>
     ae0:	80 91 24 05 	lds	r24, 0x0524	; 0x800524 <_ZN8SPIClass13interruptModeE>
     ae4:	81 11       	cpse	r24, r1
     ae6:	0e 94 d4 03 	call	0x7a8	; 0x7a8 <_ZN8SPIClass14endTransactionEv.part.0>
     aea:	61 e0       	ldi	r22, 0x01	; 1
     aec:	8a e0       	ldi	r24, 0x0A	; 10
     aee:	0e 94 74 13 	call	0x26e8	; 0x26e8 <digitalWrite>
     af2:	60 e0       	ldi	r22, 0x00	; 0
     af4:	8b e0       	ldi	r24, 0x0B	; 11
     af6:	0c 94 74 13 	jmp	0x26e8	; 0x26e8 <digitalWrite>

00000afa <_Z15setDDSFrequencyl>:
     afa:	0f 93       	push	r16
     afc:	1f 93       	push	r17
     afe:	cf 93       	push	r28
     b00:	df 93       	push	r29
     b02:	0e 94 77 0d 	call	0x1aee	; 0x1aee <__floatsisf>
     b06:	20 e0       	ldi	r18, 0x00	; 0
     b08:	30 e0       	ldi	r19, 0x00	; 0
     b0a:	40 e8       	ldi	r20, 0x80	; 128
     b0c:	5d e4       	ldi	r21, 0x4D	; 77
     b0e:	0e 94 03 0e 	call	0x1c06	; 0x1c06 <__mulsf3>
     b12:	20 e2       	ldi	r18, 0x20	; 32
     b14:	3c eb       	ldi	r19, 0xBC	; 188
     b16:	4e eb       	ldi	r20, 0xBE	; 190
     b18:	5b e4       	ldi	r21, 0x4B	; 75
     b1a:	0e 94 cd 0c 	call	0x199a	; 0x199a <__divsf3>
     b1e:	0e 94 3f 0d 	call	0x1a7e	; 0x1a7e <__fixsfsi>
     b22:	eb 01       	movw	r28, r22
     b24:	cc 0f       	add	r28, r28
     b26:	dd 1f       	adc	r29, r29
     b28:	cc 0f       	add	r28, r28
     b2a:	dd 1f       	adc	r29, r29
     b2c:	d6 95       	lsr	r29
     b2e:	c7 95       	ror	r28
     b30:	d6 95       	lsr	r29
     b32:	c7 95       	ror	r28
     b34:	00 91 14 01 	lds	r16, 0x0114	; 0x800114 <FREQZEROREG>
     b38:	10 91 15 01 	lds	r17, 0x0115	; 0x800115 <FREQZEROREG+0x1>
     b3c:	c0 2b       	or	r28, r16
     b3e:	d1 2b       	or	r29, r17
     b40:	dc 01       	movw	r26, r24
     b42:	cb 01       	movw	r24, r22
     b44:	4e e0       	ldi	r20, 0x0E	; 14
     b46:	b5 95       	asr	r27
     b48:	a7 95       	ror	r26
     b4a:	97 95       	ror	r25
     b4c:	87 95       	ror	r24
     b4e:	4a 95       	dec	r20
     b50:	d1 f7       	brne	.-12     	; 0xb46 <_Z15setDDSFrequencyl+0x4c>
     b52:	08 2b       	or	r16, r24
     b54:	19 2b       	or	r17, r25
     b56:	80 91 61 04 	lds	r24, 0x0461	; 0x800461 <current_phase>
     b5a:	90 91 62 04 	lds	r25, 0x0462	; 0x800462 <current_phase+0x1>
     b5e:	09 2e       	mov	r0, r25
     b60:	00 0c       	add	r0, r0
     b62:	aa 0b       	sbc	r26, r26
     b64:	bb 0b       	sbc	r27, r27
     b66:	80 93 6a 04 	sts	0x046A, r24	; 0x80046a <dds_out_data>
     b6a:	90 93 6b 04 	sts	0x046B, r25	; 0x80046b <dds_out_data+0x1>
     b6e:	a0 93 6c 04 	sts	0x046C, r26	; 0x80046c <dds_out_data+0x2>
     b72:	b0 93 6d 04 	sts	0x046D, r27	; 0x80046d <dds_out_data+0x3>
     b76:	0e 94 52 05 	call	0xaa4	; 0xaa4 <_Z13write_dds_spiv>
     b7a:	80 91 69 04 	lds	r24, 0x0469	; 0x800469 <func>
     b7e:	81 11       	cpse	r24, r1
     b80:	05 c0       	rjmp	.+10     	; 0xb8c <_Z15setDDSFrequencyl+0x92>
     b82:	80 e0       	ldi	r24, 0x00	; 0
     b84:	90 e2       	ldi	r25, 0x20	; 32
     b86:	a0 e0       	ldi	r26, 0x00	; 0
     b88:	b0 e0       	ldi	r27, 0x00	; 0
     b8a:	0d c0       	rjmp	.+26     	; 0xba6 <_Z15setDDSFrequencyl+0xac>
     b8c:	81 30       	cpi	r24, 0x01	; 1
     b8e:	29 f4       	brne	.+10     	; 0xb9a <_Z15setDDSFrequencyl+0xa0>
     b90:	82 e0       	ldi	r24, 0x02	; 2
     b92:	90 e2       	ldi	r25, 0x20	; 32
     b94:	a0 e0       	ldi	r26, 0x00	; 0
     b96:	b0 e0       	ldi	r27, 0x00	; 0
     b98:	06 c0       	rjmp	.+12     	; 0xba6 <_Z15setDDSFrequencyl+0xac>
     b9a:	82 30       	cpi	r24, 0x02	; 2
     b9c:	61 f4       	brne	.+24     	; 0xbb6 <_Z15setDDSFrequencyl+0xbc>
     b9e:	88 e6       	ldi	r24, 0x68	; 104
     ba0:	90 e2       	ldi	r25, 0x20	; 32
     ba2:	a0 e0       	ldi	r26, 0x00	; 0
     ba4:	b0 e0       	ldi	r27, 0x00	; 0
     ba6:	80 93 6a 04 	sts	0x046A, r24	; 0x80046a <dds_out_data>
     baa:	90 93 6b 04 	sts	0x046B, r25	; 0x80046b <dds_out_data+0x1>
     bae:	a0 93 6c 04 	sts	0x046C, r26	; 0x80046c <dds_out_data+0x2>
     bb2:	b0 93 6d 04 	sts	0x046D, r27	; 0x80046d <dds_out_data+0x3>
     bb6:	0e 94 52 05 	call	0xaa4	; 0xaa4 <_Z13write_dds_spiv>
     bba:	ce 01       	movw	r24, r28
     bbc:	a0 e0       	ldi	r26, 0x00	; 0
     bbe:	b0 e0       	ldi	r27, 0x00	; 0
     bc0:	80 93 6a 04 	sts	0x046A, r24	; 0x80046a <dds_out_data>
     bc4:	90 93 6b 04 	sts	0x046B, r25	; 0x80046b <dds_out_data+0x1>
     bc8:	a0 93 6c 04 	sts	0x046C, r26	; 0x80046c <dds_out_data+0x2>
     bcc:	b0 93 6d 04 	sts	0x046D, r27	; 0x80046d <dds_out_data+0x3>
     bd0:	0e 94 52 05 	call	0xaa4	; 0xaa4 <_Z13write_dds_spiv>
     bd4:	c8 01       	movw	r24, r16
     bd6:	a0 e0       	ldi	r26, 0x00	; 0
     bd8:	b0 e0       	ldi	r27, 0x00	; 0
     bda:	80 93 6a 04 	sts	0x046A, r24	; 0x80046a <dds_out_data>
     bde:	90 93 6b 04 	sts	0x046B, r25	; 0x80046b <dds_out_data+0x1>
     be2:	a0 93 6c 04 	sts	0x046C, r26	; 0x80046c <dds_out_data+0x2>
     be6:	b0 93 6d 04 	sts	0x046D, r27	; 0x80046d <dds_out_data+0x3>
     bea:	df 91       	pop	r29
     bec:	cf 91       	pop	r28
     bee:	1f 91       	pop	r17
     bf0:	0f 91       	pop	r16
     bf2:	0c 94 52 05 	jmp	0xaa4	; 0xaa4 <_Z13write_dds_spiv>

00000bf6 <_Z17dds_callback_funcv>:
     bf6:	4f 92       	push	r4
     bf8:	5f 92       	push	r5
     bfa:	af 92       	push	r10
     bfc:	bf 92       	push	r11
     bfe:	cf 92       	push	r12
     c00:	df 92       	push	r13
     c02:	ef 92       	push	r14
     c04:	ff 92       	push	r15
     c06:	0f 93       	push	r16
     c08:	1f 93       	push	r17
     c0a:	cf 93       	push	r28
     c0c:	00 91 06 01 	lds	r16, 0x0106	; 0x800106 <maxFreq>
     c10:	10 91 07 01 	lds	r17, 0x0107	; 0x800107 <maxFreq+0x1>
     c14:	20 91 08 01 	lds	r18, 0x0108	; 0x800108 <maxFreq+0x2>
     c18:	30 91 09 01 	lds	r19, 0x0109	; 0x800109 <maxFreq+0x3>
     c1c:	40 90 76 04 	lds	r4, 0x0476	; 0x800476 <ADCInput>
     c20:	50 90 77 04 	lds	r5, 0x0477	; 0x800477 <ADCInput+0x1>
     c24:	b2 01       	movw	r22, r4
     c26:	55 0c       	add	r5, r5
     c28:	88 0b       	sbc	r24, r24
     c2a:	99 0b       	sbc	r25, r25
     c2c:	3f 93       	push	r19
     c2e:	2f 93       	push	r18
     c30:	1f 93       	push	r17
     c32:	0f 93       	push	r16
     c34:	a1 2c       	mov	r10, r1
     c36:	b1 2c       	mov	r11, r1
     c38:	65 01       	movw	r12, r10
     c3a:	a3 94       	inc	r10
     c3c:	e1 2c       	mov	r14, r1
     c3e:	f1 2c       	mov	r15, r1
     c40:	87 01       	movw	r16, r14
     c42:	20 e0       	ldi	r18, 0x00	; 0
     c44:	34 e0       	ldi	r19, 0x04	; 4
     c46:	40 e0       	ldi	r20, 0x00	; 0
     c48:	50 e0       	ldi	r21, 0x00	; 0
     c4a:	0e 94 a3 13 	call	0x2746	; 0x2746 <_Z3maplllll>
     c4e:	60 93 5d 04 	sts	0x045D, r22	; 0x80045d <selectedUpperFreq>
     c52:	70 93 5e 04 	sts	0x045E, r23	; 0x80045e <selectedUpperFreq+0x1>
     c56:	80 93 5f 04 	sts	0x045F, r24	; 0x80045f <selectedUpperFreq+0x2>
     c5a:	90 93 60 04 	sts	0x0460, r25	; 0x800460 <selectedUpperFreq+0x3>
     c5e:	00 91 06 01 	lds	r16, 0x0106	; 0x800106 <maxFreq>
     c62:	10 91 07 01 	lds	r17, 0x0107	; 0x800107 <maxFreq+0x1>
     c66:	20 91 08 01 	lds	r18, 0x0108	; 0x800108 <maxFreq+0x2>
     c6a:	30 91 09 01 	lds	r19, 0x0109	; 0x800109 <maxFreq+0x3>
     c6e:	40 90 74 04 	lds	r4, 0x0474	; 0x800474 <ADCInput1>
     c72:	50 90 75 04 	lds	r5, 0x0475	; 0x800475 <ADCInput1+0x1>
     c76:	b2 01       	movw	r22, r4
     c78:	55 0c       	add	r5, r5
     c7a:	88 0b       	sbc	r24, r24
     c7c:	99 0b       	sbc	r25, r25
     c7e:	3f 93       	push	r19
     c80:	2f 93       	push	r18
     c82:	1f 93       	push	r17
     c84:	0f 93       	push	r16
     c86:	e1 2c       	mov	r14, r1
     c88:	f1 2c       	mov	r15, r1
     c8a:	87 01       	movw	r16, r14
     c8c:	20 e0       	ldi	r18, 0x00	; 0
     c8e:	34 e0       	ldi	r19, 0x04	; 4
     c90:	40 e0       	ldi	r20, 0x00	; 0
     c92:	50 e0       	ldi	r21, 0x00	; 0
     c94:	0e 94 a3 13 	call	0x2746	; 0x2746 <_Z3maplllll>
     c98:	60 93 59 04 	sts	0x0459, r22	; 0x800459 <selectedLowerFreq>
     c9c:	70 93 5a 04 	sts	0x045A, r23	; 0x80045a <selectedLowerFreq+0x1>
     ca0:	80 93 5b 04 	sts	0x045B, r24	; 0x80045b <selectedLowerFreq+0x2>
     ca4:	90 93 5c 04 	sts	0x045C, r25	; 0x80045c <selectedLowerFreq+0x3>
     ca8:	8d b7       	in	r24, 0x3d	; 61
     caa:	9e b7       	in	r25, 0x3e	; 62
     cac:	08 96       	adiw	r24, 0x08	; 8
     cae:	0f b6       	in	r0, 0x3f	; 63
     cb0:	f8 94       	cli
     cb2:	9e bf       	out	0x3e, r25	; 62
     cb4:	0f be       	out	0x3f, r0	; 63
     cb6:	8d bf       	out	0x3d, r24	; 61
     cb8:	c0 91 63 04 	lds	r28, 0x0463	; 0x800463 <mode>
     cbc:	c1 30       	cpi	r28, 0x01	; 1
     cbe:	09 f0       	breq	.+2      	; 0xcc2 <_Z17dds_callback_funcv+0xcc>
     cc0:	17 c1       	rjmp	.+558    	; 0xef0 <_Z17dds_callback_funcv+0x2fa>
     cc2:	60 91 6e 04 	lds	r22, 0x046E	; 0x80046e <ADCInput6>
     cc6:	70 91 6f 04 	lds	r23, 0x046F	; 0x80046f <ADCInput6+0x1>
     cca:	07 2e       	mov	r0, r23
     ccc:	00 0c       	add	r0, r0
     cce:	88 0b       	sbc	r24, r24
     cd0:	99 0b       	sbc	r25, r25
     cd2:	20 91 13 01 	lds	r18, 0x0113	; 0x800113 <maxclkspeed+0x3>
     cd6:	2f 93       	push	r18
     cd8:	20 91 12 01 	lds	r18, 0x0112	; 0x800112 <maxclkspeed+0x2>
     cdc:	2f 93       	push	r18
     cde:	20 91 11 01 	lds	r18, 0x0111	; 0x800111 <maxclkspeed+0x1>
     ce2:	2f 93       	push	r18
     ce4:	20 91 10 01 	lds	r18, 0x0110	; 0x800110 <maxclkspeed>
     ce8:	2f 93       	push	r18
     cea:	e1 2c       	mov	r14, r1
     cec:	14 e0       	ldi	r17, 0x04	; 4
     cee:	f1 2e       	mov	r15, r17
     cf0:	00 e0       	ldi	r16, 0x00	; 0
     cf2:	10 e0       	ldi	r17, 0x00	; 0
     cf4:	20 e0       	ldi	r18, 0x00	; 0
     cf6:	30 e0       	ldi	r19, 0x00	; 0
     cf8:	a9 01       	movw	r20, r18
     cfa:	0e 94 a3 13 	call	0x2746	; 0x2746 <_Z3maplllll>
     cfe:	dc 01       	movw	r26, r24
     d00:	cb 01       	movw	r24, r22
     d02:	f3 e0       	ldi	r31, 0x03	; 3
     d04:	88 0f       	add	r24, r24
     d06:	99 1f       	adc	r25, r25
     d08:	aa 1f       	adc	r26, r26
     d0a:	bb 1f       	adc	r27, r27
     d0c:	fa 95       	dec	r31
     d0e:	d1 f7       	brne	.-12     	; 0xd04 <_Z17dds_callback_funcv+0x10e>
     d10:	0f 90       	pop	r0
     d12:	0f 90       	pop	r0
     d14:	0f 90       	pop	r0
     d16:	0f 90       	pop	r0
     d18:	00 97       	sbiw	r24, 0x00	; 0
     d1a:	21 e0       	ldi	r18, 0x01	; 1
     d1c:	a2 07       	cpc	r26, r18
     d1e:	b1 05       	cpc	r27, r1
     d20:	18 f4       	brcc	.+6      	; 0xd28 <_Z17dds_callback_funcv+0x132>
     d22:	c0 93 28 05 	sts	0x0528, r28	; 0x800528 <_ZN8TimerOne15clockSelectBitsE>
     d26:	42 c0       	rjmp	.+132    	; 0xdac <_Z17dds_callback_funcv+0x1b6>
     d28:	00 97       	sbiw	r24, 0x00	; 0
     d2a:	28 e0       	ldi	r18, 0x08	; 8
     d2c:	a2 07       	cpc	r26, r18
     d2e:	b1 05       	cpc	r27, r1
     d30:	58 f4       	brcc	.+22     	; 0xd48 <_Z17dds_callback_funcv+0x152>
     d32:	22 e0       	ldi	r18, 0x02	; 2
     d34:	20 93 28 05 	sts	0x0528, r18	; 0x800528 <_ZN8TimerOne15clockSelectBitsE>
     d38:	53 e0       	ldi	r21, 0x03	; 3
     d3a:	b6 95       	lsr	r27
     d3c:	a7 95       	ror	r26
     d3e:	97 95       	ror	r25
     d40:	87 95       	ror	r24
     d42:	5a 95       	dec	r21
     d44:	d1 f7       	brne	.-12     	; 0xd3a <_Z17dds_callback_funcv+0x144>
     d46:	32 c0       	rjmp	.+100    	; 0xdac <_Z17dds_callback_funcv+0x1b6>
     d48:	00 97       	sbiw	r24, 0x00	; 0
     d4a:	20 e4       	ldi	r18, 0x40	; 64
     d4c:	a2 07       	cpc	r26, r18
     d4e:	b1 05       	cpc	r27, r1
     d50:	58 f4       	brcc	.+22     	; 0xd68 <_Z17dds_callback_funcv+0x172>
     d52:	23 e0       	ldi	r18, 0x03	; 3
     d54:	20 93 28 05 	sts	0x0528, r18	; 0x800528 <_ZN8TimerOne15clockSelectBitsE>
     d58:	46 e0       	ldi	r20, 0x06	; 6
     d5a:	b6 95       	lsr	r27
     d5c:	a7 95       	ror	r26
     d5e:	97 95       	ror	r25
     d60:	87 95       	ror	r24
     d62:	4a 95       	dec	r20
     d64:	d1 f7       	brne	.-12     	; 0xd5a <_Z17dds_callback_funcv+0x164>
     d66:	22 c0       	rjmp	.+68     	; 0xdac <_Z17dds_callback_funcv+0x1b6>
     d68:	00 97       	sbiw	r24, 0x00	; 0
     d6a:	a1 05       	cpc	r26, r1
     d6c:	21 e0       	ldi	r18, 0x01	; 1
     d6e:	b2 07       	cpc	r27, r18
     d70:	40 f4       	brcc	.+16     	; 0xd82 <_Z17dds_callback_funcv+0x18c>
     d72:	24 e0       	ldi	r18, 0x04	; 4
     d74:	20 93 28 05 	sts	0x0528, r18	; 0x800528 <_ZN8TimerOne15clockSelectBitsE>
     d78:	89 2f       	mov	r24, r25
     d7a:	9a 2f       	mov	r25, r26
     d7c:	ab 2f       	mov	r26, r27
     d7e:	bb 27       	eor	r27, r27
     d80:	15 c0       	rjmp	.+42     	; 0xdac <_Z17dds_callback_funcv+0x1b6>
     d82:	00 97       	sbiw	r24, 0x00	; 0
     d84:	a1 05       	cpc	r26, r1
     d86:	24 e0       	ldi	r18, 0x04	; 4
     d88:	b2 07       	cpc	r27, r18
     d8a:	58 f4       	brcc	.+22     	; 0xda2 <_Z17dds_callback_funcv+0x1ac>
     d8c:	25 e0       	ldi	r18, 0x05	; 5
     d8e:	20 93 28 05 	sts	0x0528, r18	; 0x800528 <_ZN8TimerOne15clockSelectBitsE>
     d92:	2a e0       	ldi	r18, 0x0A	; 10
     d94:	b6 95       	lsr	r27
     d96:	a7 95       	ror	r26
     d98:	97 95       	ror	r25
     d9a:	87 95       	ror	r24
     d9c:	2a 95       	dec	r18
     d9e:	d1 f7       	brne	.-12     	; 0xd94 <_Z17dds_callback_funcv+0x19e>
     da0:	05 c0       	rjmp	.+10     	; 0xdac <_Z17dds_callback_funcv+0x1b6>
     da2:	85 e0       	ldi	r24, 0x05	; 5
     da4:	80 93 28 05 	sts	0x0528, r24	; 0x800528 <_ZN8TimerOne15clockSelectBitsE>
     da8:	8f ef       	ldi	r24, 0xFF	; 255
     daa:	9f ef       	ldi	r25, 0xFF	; 255
     dac:	90 93 2a 05 	sts	0x052A, r25	; 0x80052a <_ZN8TimerOne9pwmPeriodE+0x1>
     db0:	80 93 29 05 	sts	0x0529, r24	; 0x800529 <_ZN8TimerOne9pwmPeriodE>
     db4:	80 91 29 05 	lds	r24, 0x0529	; 0x800529 <_ZN8TimerOne9pwmPeriodE>
     db8:	90 91 2a 05 	lds	r25, 0x052A	; 0x80052a <_ZN8TimerOne9pwmPeriodE+0x1>
     dbc:	90 93 87 00 	sts	0x0087, r25	; 0x800087 <__TEXT_REGION_LENGTH__+0x7e0087>
     dc0:	80 93 86 00 	sts	0x0086, r24	; 0x800086 <__TEXT_REGION_LENGTH__+0x7e0086>
     dc4:	80 91 28 05 	lds	r24, 0x0528	; 0x800528 <_ZN8TimerOne15clockSelectBitsE>
     dc8:	80 61       	ori	r24, 0x10	; 16
     dca:	80 93 81 00 	sts	0x0081, r24	; 0x800081 <__TEXT_REGION_LENGTH__+0x7e0081>
     dce:	40 91 59 04 	lds	r20, 0x0459	; 0x800459 <selectedLowerFreq>
     dd2:	50 91 5a 04 	lds	r21, 0x045A	; 0x80045a <selectedLowerFreq+0x1>
     dd6:	60 91 5b 04 	lds	r22, 0x045B	; 0x80045b <selectedLowerFreq+0x2>
     dda:	70 91 5c 04 	lds	r23, 0x045C	; 0x80045c <selectedLowerFreq+0x3>
     dde:	80 91 5d 04 	lds	r24, 0x045D	; 0x80045d <selectedUpperFreq>
     de2:	90 91 5e 04 	lds	r25, 0x045E	; 0x80045e <selectedUpperFreq+0x1>
     de6:	a0 91 5f 04 	lds	r26, 0x045F	; 0x80045f <selectedUpperFreq+0x2>
     dea:	b0 91 60 04 	lds	r27, 0x0460	; 0x800460 <selectedUpperFreq+0x3>
     dee:	48 17       	cp	r20, r24
     df0:	59 07       	cpc	r21, r25
     df2:	6a 07       	cpc	r22, r26
     df4:	7b 07       	cpc	r23, r27
     df6:	24 f1       	brlt	.+72     	; 0xe40 <_Z17dds_callback_funcv+0x24a>
     df8:	80 91 59 04 	lds	r24, 0x0459	; 0x800459 <selectedLowerFreq>
     dfc:	90 91 5a 04 	lds	r25, 0x045A	; 0x80045a <selectedLowerFreq+0x1>
     e00:	a0 91 5b 04 	lds	r26, 0x045B	; 0x80045b <selectedLowerFreq+0x2>
     e04:	b0 91 5c 04 	lds	r27, 0x045C	; 0x80045c <selectedLowerFreq+0x3>
     e08:	02 97       	sbiw	r24, 0x02	; 2
     e0a:	a1 05       	cpc	r26, r1
     e0c:	b1 05       	cpc	r27, r1
     e0e:	64 f0       	brlt	.+24     	; 0xe28 <_Z17dds_callback_funcv+0x232>
     e10:	80 91 5d 04 	lds	r24, 0x045D	; 0x80045d <selectedUpperFreq>
     e14:	90 91 5e 04 	lds	r25, 0x045E	; 0x80045e <selectedUpperFreq+0x1>
     e18:	a0 91 5f 04 	lds	r26, 0x045F	; 0x80045f <selectedUpperFreq+0x2>
     e1c:	b0 91 60 04 	lds	r27, 0x0460	; 0x800460 <selectedUpperFreq+0x3>
     e20:	01 97       	sbiw	r24, 0x01	; 1
     e22:	a1 09       	sbc	r26, r1
     e24:	b1 09       	sbc	r27, r1
     e26:	04 c0       	rjmp	.+8      	; 0xe30 <_Z17dds_callback_funcv+0x23a>
     e28:	81 e0       	ldi	r24, 0x01	; 1
     e2a:	90 e0       	ldi	r25, 0x00	; 0
     e2c:	a0 e0       	ldi	r26, 0x00	; 0
     e2e:	b0 e0       	ldi	r27, 0x00	; 0
     e30:	80 93 59 04 	sts	0x0459, r24	; 0x800459 <selectedLowerFreq>
     e34:	90 93 5a 04 	sts	0x045A, r25	; 0x80045a <selectedLowerFreq+0x1>
     e38:	a0 93 5b 04 	sts	0x045B, r26	; 0x80045b <selectedLowerFreq+0x2>
     e3c:	b0 93 5c 04 	sts	0x045C, r27	; 0x80045c <selectedLowerFreq+0x3>
     e40:	20 91 68 04 	lds	r18, 0x0468	; 0x800468 <sweep_direction>
     e44:	80 91 64 04 	lds	r24, 0x0464	; 0x800464 <sweepcounter>
     e48:	90 91 65 04 	lds	r25, 0x0465	; 0x800465 <sweepcounter+0x1>
     e4c:	a0 91 66 04 	lds	r26, 0x0466	; 0x800466 <sweepcounter+0x2>
     e50:	b0 91 67 04 	lds	r27, 0x0467	; 0x800467 <sweepcounter+0x3>
     e54:	21 11       	cpse	r18, r1
     e56:	15 c0       	rjmp	.+42     	; 0xe82 <_Z17dds_callback_funcv+0x28c>
     e58:	40 91 5d 04 	lds	r20, 0x045D	; 0x80045d <selectedUpperFreq>
     e5c:	50 91 5e 04 	lds	r21, 0x045E	; 0x80045e <selectedUpperFreq+0x1>
     e60:	60 91 5f 04 	lds	r22, 0x045F	; 0x80045f <selectedUpperFreq+0x2>
     e64:	70 91 60 04 	lds	r23, 0x0460	; 0x800460 <selectedUpperFreq+0x3>
     e68:	84 17       	cp	r24, r20
     e6a:	95 07       	cpc	r25, r21
     e6c:	a6 07       	cpc	r26, r22
     e6e:	b7 07       	cpc	r27, r23
     e70:	24 f4       	brge	.+8      	; 0xe7a <_Z17dds_callback_funcv+0x284>
     e72:	01 96       	adiw	r24, 0x01	; 1
     e74:	a1 1d       	adc	r26, r1
     e76:	b1 1d       	adc	r27, r1
     e78:	16 c0       	rjmp	.+44     	; 0xea6 <_Z17dds_callback_funcv+0x2b0>
     e7a:	81 e0       	ldi	r24, 0x01	; 1
     e7c:	80 93 68 04 	sts	0x0468, r24	; 0x800468 <sweep_direction>
     e80:	1d c0       	rjmp	.+58     	; 0xebc <_Z17dds_callback_funcv+0x2c6>
     e82:	21 30       	cpi	r18, 0x01	; 1
     e84:	d9 f4       	brne	.+54     	; 0xebc <_Z17dds_callback_funcv+0x2c6>
     e86:	40 91 59 04 	lds	r20, 0x0459	; 0x800459 <selectedLowerFreq>
     e8a:	50 91 5a 04 	lds	r21, 0x045A	; 0x80045a <selectedLowerFreq+0x1>
     e8e:	60 91 5b 04 	lds	r22, 0x045B	; 0x80045b <selectedLowerFreq+0x2>
     e92:	70 91 5c 04 	lds	r23, 0x045C	; 0x80045c <selectedLowerFreq+0x3>
     e96:	48 17       	cp	r20, r24
     e98:	59 07       	cpc	r21, r25
     e9a:	6a 07       	cpc	r22, r26
     e9c:	7b 07       	cpc	r23, r27
     e9e:	64 f4       	brge	.+24     	; 0xeb8 <_Z17dds_callback_funcv+0x2c2>
     ea0:	01 97       	sbiw	r24, 0x01	; 1
     ea2:	a1 09       	sbc	r26, r1
     ea4:	b1 09       	sbc	r27, r1
     ea6:	80 93 64 04 	sts	0x0464, r24	; 0x800464 <sweepcounter>
     eaa:	90 93 65 04 	sts	0x0465, r25	; 0x800465 <sweepcounter+0x1>
     eae:	a0 93 66 04 	sts	0x0466, r26	; 0x800466 <sweepcounter+0x2>
     eb2:	b0 93 67 04 	sts	0x0467, r27	; 0x800467 <sweepcounter+0x3>
     eb6:	02 c0       	rjmp	.+4      	; 0xebc <_Z17dds_callback_funcv+0x2c6>
     eb8:	10 92 68 04 	sts	0x0468, r1	; 0x800468 <sweep_direction>
     ebc:	60 91 64 04 	lds	r22, 0x0464	; 0x800464 <sweepcounter>
     ec0:	70 91 65 04 	lds	r23, 0x0465	; 0x800465 <sweepcounter+0x1>
     ec4:	80 91 66 04 	lds	r24, 0x0466	; 0x800466 <sweepcounter+0x2>
     ec8:	90 91 67 04 	lds	r25, 0x0467	; 0x800467 <sweepcounter+0x3>
     ecc:	0e 94 7d 05 	call	0xafa	; 0xafa <_Z15setDDSFrequencyl>
     ed0:	80 91 64 04 	lds	r24, 0x0464	; 0x800464 <sweepcounter>
     ed4:	90 91 65 04 	lds	r25, 0x0465	; 0x800465 <sweepcounter+0x1>
     ed8:	a0 91 66 04 	lds	r26, 0x0466	; 0x800466 <sweepcounter+0x2>
     edc:	b0 91 67 04 	lds	r27, 0x0467	; 0x800467 <sweepcounter+0x3>
     ee0:	80 93 55 04 	sts	0x0455, r24	; 0x800455 <currentFreq>
     ee4:	90 93 56 04 	sts	0x0456, r25	; 0x800456 <currentFreq+0x1>
     ee8:	a0 93 57 04 	sts	0x0457, r26	; 0x800457 <currentFreq+0x2>
     eec:	b0 93 58 04 	sts	0x0458, r27	; 0x800458 <currentFreq+0x3>
     ef0:	80 91 63 04 	lds	r24, 0x0463	; 0x800463 <mode>
     ef4:	81 11       	cpse	r24, r1
     ef6:	2d c0       	rjmp	.+90     	; 0xf52 <_Z17dds_callback_funcv+0x35c>
     ef8:	80 91 5d 04 	lds	r24, 0x045D	; 0x80045d <selectedUpperFreq>
     efc:	90 91 5e 04 	lds	r25, 0x045E	; 0x80045e <selectedUpperFreq+0x1>
     f00:	a0 91 5f 04 	lds	r26, 0x045F	; 0x80045f <selectedUpperFreq+0x2>
     f04:	b0 91 60 04 	lds	r27, 0x0460	; 0x800460 <selectedUpperFreq+0x3>
     f08:	01 97       	sbiw	r24, 0x01	; 1
     f0a:	a1 09       	sbc	r26, r1
     f0c:	b1 09       	sbc	r27, r1
     f0e:	80 93 59 04 	sts	0x0459, r24	; 0x800459 <selectedLowerFreq>
     f12:	90 93 5a 04 	sts	0x045A, r25	; 0x80045a <selectedLowerFreq+0x1>
     f16:	a0 93 5b 04 	sts	0x045B, r26	; 0x80045b <selectedLowerFreq+0x2>
     f1a:	b0 93 5c 04 	sts	0x045C, r27	; 0x80045c <selectedLowerFreq+0x3>
     f1e:	60 91 5d 04 	lds	r22, 0x045D	; 0x80045d <selectedUpperFreq>
     f22:	70 91 5e 04 	lds	r23, 0x045E	; 0x80045e <selectedUpperFreq+0x1>
     f26:	80 91 5f 04 	lds	r24, 0x045F	; 0x80045f <selectedUpperFreq+0x2>
     f2a:	90 91 60 04 	lds	r25, 0x0460	; 0x800460 <selectedUpperFreq+0x3>
     f2e:	0e 94 7d 05 	call	0xafa	; 0xafa <_Z15setDDSFrequencyl>
     f32:	80 91 5d 04 	lds	r24, 0x045D	; 0x80045d <selectedUpperFreq>
     f36:	90 91 5e 04 	lds	r25, 0x045E	; 0x80045e <selectedUpperFreq+0x1>
     f3a:	a0 91 5f 04 	lds	r26, 0x045F	; 0x80045f <selectedUpperFreq+0x2>
     f3e:	b0 91 60 04 	lds	r27, 0x0460	; 0x800460 <selectedUpperFreq+0x3>
     f42:	80 93 55 04 	sts	0x0455, r24	; 0x800455 <currentFreq>
     f46:	90 93 56 04 	sts	0x0456, r25	; 0x800456 <currentFreq+0x1>
     f4a:	a0 93 57 04 	sts	0x0457, r26	; 0x800457 <currentFreq+0x2>
     f4e:	b0 93 58 04 	sts	0x0458, r27	; 0x800458 <currentFreq+0x3>
     f52:	cf 91       	pop	r28
     f54:	1f 91       	pop	r17
     f56:	0f 91       	pop	r16
     f58:	ff 90       	pop	r15
     f5a:	ef 90       	pop	r14
     f5c:	df 90       	pop	r13
     f5e:	cf 90       	pop	r12
     f60:	bf 90       	pop	r11
     f62:	af 90       	pop	r10
     f64:	5f 90       	pop	r5
     f66:	4f 90       	pop	r4
     f68:	08 95       	ret

00000f6a <_Z11doTimer1Intv>:
     f6a:	0c 94 fb 05 	jmp	0xbf6	; 0xbf6 <_Z17dds_callback_funcv>

00000f6e <_Z15enableInterrupthPFvvEh>:
     f6e:	e8 2f       	mov	r30, r24
     f70:	ef 77       	andi	r30, 0x7F	; 127
     f72:	87 fd       	sbrc	r24, 7
     f74:	05 c0       	rjmp	.+10     	; 0xf80 <_Z15enableInterrupthPFvvEh+0x12>
     f76:	8e ef       	ldi	r24, 0xFE	; 254
     f78:	8e 0f       	add	r24, r30
     f7a:	82 30       	cpi	r24, 0x02	; 2
     f7c:	08 f4       	brcc	.+2      	; 0xf80 <_Z15enableInterrupthPFvvEh+0x12>
     f7e:	9a c0       	rjmp	.+308    	; 0x10b4 <_Z15enableInterrupthPFvvEh+0x146>
     f80:	8e 2f       	mov	r24, r30
     f82:	90 e0       	ldi	r25, 0x00	; 0
     f84:	fc 01       	movw	r30, r24
     f86:	e0 57       	subi	r30, 0x70	; 112
     f88:	ff 4f       	sbci	r31, 0xFF	; 255
     f8a:	24 91       	lpm	r18, Z
     f8c:	fc 01       	movw	r30, r24
     f8e:	ec 55       	subi	r30, 0x5C	; 92
     f90:	ff 4f       	sbci	r31, 0xFF	; 255
     f92:	34 91       	lpm	r19, Z
     f94:	54 2f       	mov	r21, r20
     f96:	5d 7f       	andi	r21, 0xFD	; 253
     f98:	51 30       	cpi	r21, 0x01	; 1
     f9a:	b9 f4       	brne	.+46     	; 0xfca <_Z15enableInterrupthPFvvEh+0x5c>
     f9c:	32 30       	cpi	r19, 0x02	; 2
     f9e:	31 f4       	brne	.+12     	; 0xfac <_Z15enableInterrupthPFvvEh+0x3e>
     fa0:	50 91 26 04 	lds	r21, 0x0426	; 0x800426 <risingPinsPORTB>
     fa4:	52 2b       	or	r21, r18
     fa6:	50 93 26 04 	sts	0x0426, r21	; 0x800426 <risingPinsPORTB>
     faa:	0f c0       	rjmp	.+30     	; 0xfca <_Z15enableInterrupthPFvvEh+0x5c>
     fac:	33 30       	cpi	r19, 0x03	; 3
     fae:	31 f4       	brne	.+12     	; 0xfbc <_Z15enableInterrupthPFvvEh+0x4e>
     fb0:	50 91 23 04 	lds	r21, 0x0423	; 0x800423 <risingPinsPORTC>
     fb4:	52 2b       	or	r21, r18
     fb6:	50 93 23 04 	sts	0x0423, r21	; 0x800423 <risingPinsPORTC>
     fba:	07 c0       	rjmp	.+14     	; 0xfca <_Z15enableInterrupthPFvvEh+0x5c>
     fbc:	34 30       	cpi	r19, 0x04	; 4
     fbe:	29 f4       	brne	.+10     	; 0xfca <_Z15enableInterrupthPFvvEh+0x5c>
     fc0:	50 91 20 04 	lds	r21, 0x0420	; 0x800420 <risingPinsPORTD>
     fc4:	52 2b       	or	r21, r18
     fc6:	50 93 20 04 	sts	0x0420, r21	; 0x800420 <risingPinsPORTD>
     fca:	41 50       	subi	r20, 0x01	; 1
     fcc:	42 30       	cpi	r20, 0x02	; 2
     fce:	b8 f4       	brcc	.+46     	; 0xffe <_Z15enableInterrupthPFvvEh+0x90>
     fd0:	32 30       	cpi	r19, 0x02	; 2
     fd2:	31 f4       	brne	.+12     	; 0xfe0 <_Z15enableInterrupthPFvvEh+0x72>
     fd4:	40 91 25 04 	lds	r20, 0x0425	; 0x800425 <fallingPinsPORTB>
     fd8:	42 2b       	or	r20, r18
     fda:	40 93 25 04 	sts	0x0425, r20	; 0x800425 <fallingPinsPORTB>
     fde:	0f c0       	rjmp	.+30     	; 0xffe <_Z15enableInterrupthPFvvEh+0x90>
     fe0:	33 30       	cpi	r19, 0x03	; 3
     fe2:	31 f4       	brne	.+12     	; 0xff0 <_Z15enableInterrupthPFvvEh+0x82>
     fe4:	40 91 22 04 	lds	r20, 0x0422	; 0x800422 <fallingPinsPORTC>
     fe8:	42 2b       	or	r20, r18
     fea:	40 93 22 04 	sts	0x0422, r20	; 0x800422 <fallingPinsPORTC>
     fee:	07 c0       	rjmp	.+14     	; 0xffe <_Z15enableInterrupthPFvvEh+0x90>
     ff0:	34 30       	cpi	r19, 0x04	; 4
     ff2:	29 f4       	brne	.+10     	; 0xffe <_Z15enableInterrupthPFvvEh+0x90>
     ff4:	40 91 1f 04 	lds	r20, 0x041F	; 0x80041f <fallingPinsPORTD>
     ff8:	42 2b       	or	r20, r18
     ffa:	40 93 1f 04 	sts	0x041F, r20	; 0x80041f <fallingPinsPORTD>
     ffe:	fc 01       	movw	r30, r24
    1000:	e8 59       	subi	r30, 0x98	; 152
    1002:	ff 4f       	sbci	r31, 0xFF	; 255
    1004:	a4 91       	lpm	r26, Z
    1006:	32 30       	cpi	r19, 0x02	; 2
    1008:	c1 f4       	brne	.+48     	; 0x103a <_Z15enableInterrupthPFvvEh+0xcc>
    100a:	b0 e0       	ldi	r27, 0x00	; 0
    100c:	aa 0f       	add	r26, r26
    100e:	bb 1f       	adc	r27, r27
    1010:	ad 5b       	subi	r26, 0xBD	; 189
    1012:	bb 4f       	sbci	r27, 0xFB	; 251
    1014:	6d 93       	st	X+, r22
    1016:	7c 93       	st	X, r23
    1018:	ec eb       	ldi	r30, 0xBC	; 188
    101a:	f0 e0       	ldi	r31, 0x00	; 0
    101c:	a5 91       	lpm	r26, Z+
    101e:	b4 91       	lpm	r27, Z
    1020:	8c 91       	ld	r24, X
    1022:	80 93 24 04 	sts	0x0424, r24	; 0x800424 <_ZL13portSnapshotB>
    1026:	8b e6       	ldi	r24, 0x6B	; 107
    1028:	90 e0       	ldi	r25, 0x00	; 0
    102a:	90 93 54 04 	sts	0x0454, r25	; 0x800454 <pcmsk+0x1>
    102e:	80 93 53 04 	sts	0x0453, r24	; 0x800453 <pcmsk>
    1032:	80 91 68 00 	lds	r24, 0x0068	; 0x800068 <__TEXT_REGION_LENGTH__+0x7e0068>
    1036:	81 60       	ori	r24, 0x01	; 1
    1038:	33 c0       	rjmp	.+102    	; 0x10a0 <_Z15enableInterrupthPFvvEh+0x132>
    103a:	33 30       	cpi	r19, 0x03	; 3
    103c:	c1 f4       	brne	.+48     	; 0x106e <_Z15enableInterrupthPFvvEh+0x100>
    103e:	b0 e0       	ldi	r27, 0x00	; 0
    1040:	aa 0f       	add	r26, r26
    1042:	bb 1f       	adc	r27, r27
    1044:	a9 5c       	subi	r26, 0xC9	; 201
    1046:	bb 4f       	sbci	r27, 0xFB	; 251
    1048:	6d 93       	st	X+, r22
    104a:	7c 93       	st	X, r23
    104c:	ee eb       	ldi	r30, 0xBE	; 190
    104e:	f0 e0       	ldi	r31, 0x00	; 0
    1050:	a5 91       	lpm	r26, Z+
    1052:	b4 91       	lpm	r27, Z
    1054:	8c 91       	ld	r24, X
    1056:	80 93 21 04 	sts	0x0421, r24	; 0x800421 <_ZL13portSnapshotC>
    105a:	8c e6       	ldi	r24, 0x6C	; 108
    105c:	90 e0       	ldi	r25, 0x00	; 0
    105e:	90 93 54 04 	sts	0x0454, r25	; 0x800454 <pcmsk+0x1>
    1062:	80 93 53 04 	sts	0x0453, r24	; 0x800453 <pcmsk>
    1066:	80 91 68 00 	lds	r24, 0x0068	; 0x800068 <__TEXT_REGION_LENGTH__+0x7e0068>
    106a:	82 60       	ori	r24, 0x02	; 2
    106c:	19 c0       	rjmp	.+50     	; 0x10a0 <_Z15enableInterrupthPFvvEh+0x132>
    106e:	34 30       	cpi	r19, 0x04	; 4
    1070:	c9 f4       	brne	.+50     	; 0x10a4 <_Z15enableInterrupthPFvvEh+0x136>
    1072:	b0 e0       	ldi	r27, 0x00	; 0
    1074:	aa 0f       	add	r26, r26
    1076:	bb 1f       	adc	r27, r27
    1078:	a9 5d       	subi	r26, 0xD9	; 217
    107a:	bb 4f       	sbci	r27, 0xFB	; 251
    107c:	6d 93       	st	X+, r22
    107e:	7c 93       	st	X, r23
    1080:	e0 ec       	ldi	r30, 0xC0	; 192
    1082:	f0 e0       	ldi	r31, 0x00	; 0
    1084:	a5 91       	lpm	r26, Z+
    1086:	b4 91       	lpm	r27, Z
    1088:	8c 91       	ld	r24, X
    108a:	80 93 1e 04 	sts	0x041E, r24	; 0x80041e <_ZL13portSnapshotD>
    108e:	8d e6       	ldi	r24, 0x6D	; 109
    1090:	90 e0       	ldi	r25, 0x00	; 0
    1092:	90 93 54 04 	sts	0x0454, r25	; 0x800454 <pcmsk+0x1>
    1096:	80 93 53 04 	sts	0x0453, r24	; 0x800453 <pcmsk>
    109a:	80 91 68 00 	lds	r24, 0x0068	; 0x800068 <__TEXT_REGION_LENGTH__+0x7e0068>
    109e:	84 60       	ori	r24, 0x04	; 4
    10a0:	80 93 68 00 	sts	0x0068, r24	; 0x800068 <__TEXT_REGION_LENGTH__+0x7e0068>
    10a4:	a0 91 53 04 	lds	r26, 0x0453	; 0x800453 <pcmsk>
    10a8:	b0 91 54 04 	lds	r27, 0x0454	; 0x800454 <pcmsk+0x1>
    10ac:	ec 91       	ld	r30, X
    10ae:	2e 2b       	or	r18, r30
    10b0:	2c 93       	st	X, r18
    10b2:	08 95       	ret
    10b4:	9f b7       	in	r25, 0x3f	; 63
    10b6:	f8 94       	cli
    10b8:	e2 30       	cpi	r30, 0x02	; 2
    10ba:	99 f4       	brne	.+38     	; 0x10e2 <_Z15enableInterrupthPFvvEh+0x174>
    10bc:	70 93 50 04 	sts	0x0450, r23	; 0x800450 <functionPointerArrayEXTERNAL+0x1>
    10c0:	60 93 4f 04 	sts	0x044F, r22	; 0x80044f <functionPointerArrayEXTERNAL>
    10c4:	e8 98       	cbi	0x1d, 0	; 29
    10c6:	80 91 69 00 	lds	r24, 0x0069	; 0x800069 <__TEXT_REGION_LENGTH__+0x7e0069>
    10ca:	8c 7f       	andi	r24, 0xFC	; 252
    10cc:	80 93 69 00 	sts	0x0069, r24	; 0x800069 <__TEXT_REGION_LENGTH__+0x7e0069>
    10d0:	80 91 69 00 	lds	r24, 0x0069	; 0x800069 <__TEXT_REGION_LENGTH__+0x7e0069>
    10d4:	48 2b       	or	r20, r24
    10d6:	40 93 69 00 	sts	0x0069, r20	; 0x800069 <__TEXT_REGION_LENGTH__+0x7e0069>
    10da:	e0 9a       	sbi	0x1c, 0	; 28
    10dc:	e8 9a       	sbi	0x1d, 0	; 29
    10de:	9f bf       	out	0x3f, r25	; 63
    10e0:	08 95       	ret
    10e2:	70 93 52 04 	sts	0x0452, r23	; 0x800452 <functionPointerArrayEXTERNAL+0x3>
    10e6:	60 93 51 04 	sts	0x0451, r22	; 0x800451 <functionPointerArrayEXTERNAL+0x2>
    10ea:	e9 98       	cbi	0x1d, 1	; 29
    10ec:	80 91 69 00 	lds	r24, 0x0069	; 0x800069 <__TEXT_REGION_LENGTH__+0x7e0069>
    10f0:	83 7f       	andi	r24, 0xF3	; 243
    10f2:	80 93 69 00 	sts	0x0069, r24	; 0x800069 <__TEXT_REGION_LENGTH__+0x7e0069>
    10f6:	80 91 69 00 	lds	r24, 0x0069	; 0x800069 <__TEXT_REGION_LENGTH__+0x7e0069>
    10fa:	24 e0       	ldi	r18, 0x04	; 4
    10fc:	42 9f       	mul	r20, r18
    10fe:	a0 01       	movw	r20, r0
    1100:	11 24       	eor	r1, r1
    1102:	48 2b       	or	r20, r24
    1104:	40 93 69 00 	sts	0x0069, r20	; 0x800069 <__TEXT_REGION_LENGTH__+0x7e0069>
    1108:	e1 9a       	sbi	0x1c, 1	; 28
    110a:	e9 9a       	sbi	0x1d, 1	; 29
    110c:	e8 cf       	rjmp	.-48     	; 0x10de <_Z15enableInterrupthPFvvEh+0x170>

0000110e <__vector_1>:
// *************************************************************************************
// External Interrupts
// *************************************************************************************
#ifndef EI_NOTEXTERNAL
#ifndef EI_NOTINT0
ISR(INT0_vect) {/*{{{*/
    110e:	1f 92       	push	r1
    1110:	0f 92       	push	r0
    1112:	0f b6       	in	r0, 0x3f	; 63
    1114:	0f 92       	push	r0
    1116:	11 24       	eor	r1, r1
    1118:	2f 93       	push	r18
    111a:	3f 93       	push	r19
    111c:	4f 93       	push	r20
    111e:	5f 93       	push	r21
    1120:	6f 93       	push	r22
    1122:	7f 93       	push	r23
    1124:	8f 93       	push	r24
    1126:	9f 93       	push	r25
    1128:	af 93       	push	r26
    112a:	bf 93       	push	r27
    112c:	ef 93       	push	r30
    112e:	ff 93       	push	r31
#elif defined EI_ATTINY25
  arduinoInterruptedPin=ARDUINO_PIN_B0; arduinoPinState=PINB & _BV(0);
#endif
#endif // EI_ARDUINO_INTERRUPTED_PIN
#if ! defined EI_ATTINY25 && ! defined EI_ATTINY24
  (*functionPointerArrayEXTERNAL[0])();
    1130:	e0 91 4f 04 	lds	r30, 0x044F	; 0x80044f <functionPointerArrayEXTERNAL>
    1134:	f0 91 50 04 	lds	r31, 0x0450	; 0x800450 <functionPointerArrayEXTERNAL+0x1>
    1138:	09 95       	icall
  INTERRUPT_FLAG_PIN2++;
#endif
#endif

#endif // NEEDFORSPEED
}/*}}}*/
    113a:	ff 91       	pop	r31
    113c:	ef 91       	pop	r30
    113e:	bf 91       	pop	r27
    1140:	af 91       	pop	r26
    1142:	9f 91       	pop	r25
    1144:	8f 91       	pop	r24
    1146:	7f 91       	pop	r23
    1148:	6f 91       	pop	r22
    114a:	5f 91       	pop	r21
    114c:	4f 91       	pop	r20
    114e:	3f 91       	pop	r19
    1150:	2f 91       	pop	r18
    1152:	0f 90       	pop	r0
    1154:	0f be       	out	0x3f, r0	; 63
    1156:	0f 90       	pop	r0
    1158:	1f 90       	pop	r1
    115a:	18 95       	reti

0000115c <__vector_2>:
#endif // EI_NOTINT0

#if ! defined(EI_ATTINY24) && ! defined(EI_ATTINY25)
#ifndef EI_NOTINT1
ISR(INT1_vect) {/*{{{*/
    115c:	1f 92       	push	r1
    115e:	0f 92       	push	r0
    1160:	0f b6       	in	r0, 0x3f	; 63
    1162:	0f 92       	push	r0
    1164:	11 24       	eor	r1, r1
    1166:	2f 93       	push	r18
    1168:	3f 93       	push	r19
    116a:	4f 93       	push	r20
    116c:	5f 93       	push	r21
    116e:	6f 93       	push	r22
    1170:	7f 93       	push	r23
    1172:	8f 93       	push	r24
    1174:	9f 93       	push	r25
    1176:	af 93       	push	r26
    1178:	bf 93       	push	r27
    117a:	ef 93       	push	r30
    117c:	ff 93       	push	r31
  arduinoInterruptedPin=ARDUINO_PIN_D1; arduinoPinState=PIND & _BV(1);
#elif defined ARDUINO_328
  arduinoInterruptedPin=ARDUINO_PIN_D3; arduinoPinState=PIND & _BV(3);
#endif
#endif // EI_ARDUINO_INTERRUPTED_PIN
  (*functionPointerArrayEXTERNAL[1])();
    117e:	e0 91 51 04 	lds	r30, 0x0451	; 0x800451 <functionPointerArrayEXTERNAL+0x2>
    1182:	f0 91 52 04 	lds	r31, 0x0452	; 0x800452 <functionPointerArrayEXTERNAL+0x3>
    1186:	09 95       	icall
#ifdef INTERRUPT_FLAG_PIN3
  INTERRUPT_FLAG_PIN3++;
#endif
#endif
#endif // NEEDFORSPEED
}/*}}}*/
    1188:	ff 91       	pop	r31
    118a:	ef 91       	pop	r30
    118c:	bf 91       	pop	r27
    118e:	af 91       	pop	r26
    1190:	9f 91       	pop	r25
    1192:	8f 91       	pop	r24
    1194:	7f 91       	pop	r23
    1196:	6f 91       	pop	r22
    1198:	5f 91       	pop	r21
    119a:	4f 91       	pop	r20
    119c:	3f 91       	pop	r19
    119e:	2f 91       	pop	r18
    11a0:	0f 90       	pop	r0
    11a2:	0f be       	out	0x3f, r0	; 63
    11a4:	0f 90       	pop	r0
    11a6:	1f 90       	pop	r1
    11a8:	18 95       	reti

000011aa <__vector_3>:
  // exitPORTBISR: PORTC &= ~(1 << PC5); // SIGNAL THAT WE ARE LEAVING THE INTERRUPT
}/*}}}*/
#endif // EI_NOTPORTA

#ifndef EI_NOTPORTB
ISR(PORTB_VECT) {/*{{{*/
    11aa:	1f 92       	push	r1
    11ac:	0f 92       	push	r0
    11ae:	0f b6       	in	r0, 0x3f	; 63
    11b0:	0f 92       	push	r0
    11b2:	11 24       	eor	r1, r1
    11b4:	2f 93       	push	r18
    11b6:	3f 93       	push	r19
    11b8:	4f 93       	push	r20
    11ba:	5f 93       	push	r21
    11bc:	6f 93       	push	r22
    11be:	7f 93       	push	r23
    11c0:	8f 93       	push	r24
    11c2:	9f 93       	push	r25
    11c4:	af 93       	push	r26
    11c6:	bf 93       	push	r27
    11c8:	cf 93       	push	r28
    11ca:	ef 93       	push	r30
    11cc:	ff 93       	push	r31
  uint8_t current;
  uint8_t interruptMask;
  uint8_t changedPins;
  uint8_t tmp;

  current=PINB;
    11ce:	23 b1       	in	r18, 0x03	; 3
// If we trust the compiler to do this, it will use an extra register...
//  changedPins=(portSnapshotB ^ current) &
//                                       ((risingPinsPORTB & current) | (fallingPinsPORTB & ~current));
// ...so we do it ourselves:
  changedPins   = portSnapshotB ^ current;
    11d0:	c0 91 24 04 	lds	r28, 0x0424	; 0x800424 <_ZL13portSnapshotB>
  tmp           = risingPinsPORTB & current;
    11d4:	80 91 26 04 	lds	r24, 0x0426	; 0x800426 <risingPinsPORTB>
  interruptMask = fallingPinsPORTB & ~current;
    11d8:	90 91 25 04 	lds	r25, 0x0425	; 0x800425 <fallingPinsPORTB>
    11dc:	32 2f       	mov	r19, r18
    11de:	30 95       	com	r19
    11e0:	93 23       	and	r25, r19
  interruptMask = interruptMask | tmp;
    11e2:	82 23       	and	r24, r18
    11e4:	89 2b       	or	r24, r25
  interruptMask = PCMSK1 & interruptMask;
#else
#ifdef EI_ATTINY25
  interruptMask = PCMSK & interruptMask;
#else
  interruptMask = PCMSK0 & interruptMask;
    11e6:	90 91 6b 00 	lds	r25, 0x006B	; 0x80006b <__TEXT_REGION_LENGTH__+0x7e006b>
    11ea:	c2 27       	eor	r28, r18
    11ec:	c9 23       	and	r28, r25
    11ee:	c8 23       	and	r28, r24
#endif
#endif

  portSnapshotB = current;
    11f0:	20 93 24 04 	sts	0x0424, r18	; 0x800424 <_ZL13portSnapshotB>
#ifdef NEEDFORSPEED
#include "utility/ei_portb_speed.h"
#else
  if (interruptMask == 0) goto exitPORTBISR; // get out quickly if not interested.
    11f4:	cc 23       	and	r28, r28
    11f6:	51 f1       	breq	.+84     	; 0x124c <__vector_3+0xa2>
#if ! (defined ARDUINO_328) && ! (defined EI_ATTINY24) && ! (defined EI_ATTINY25)
  if (interruptMask & _BV(6)) { arduinoInterruptedPin=ARDUINO_PIN_B6; arduinoPinState=current & _BV(6); portBFunctions.pinSix(); }
  if (interruptMask & _BV(7)) { arduinoInterruptedPin=ARDUINO_PIN_B7; arduinoPinState=current & _BV(7); portBFunctions.pinSeven(); }
#endif
#else // EI_ARDUINO_INTERRUPTED_PIN
  if (interruptMask & _BV(0)) portBFunctions.pinZero();
    11f8:	c0 ff       	sbrs	r28, 0
    11fa:	05 c0       	rjmp	.+10     	; 0x1206 <__vector_3+0x5c>
    11fc:	e0 91 43 04 	lds	r30, 0x0443	; 0x800443 <portBFunctions>
    1200:	f0 91 44 04 	lds	r31, 0x0444	; 0x800444 <portBFunctions+0x1>
    1204:	09 95       	icall
  if (interruptMask & _BV(1)) portBFunctions.pinOne();
    1206:	c1 ff       	sbrs	r28, 1
    1208:	05 c0       	rjmp	.+10     	; 0x1214 <__vector_3+0x6a>
    120a:	e0 91 45 04 	lds	r30, 0x0445	; 0x800445 <portBFunctions+0x2>
    120e:	f0 91 46 04 	lds	r31, 0x0446	; 0x800446 <portBFunctions+0x3>
    1212:	09 95       	icall
  if (interruptMask & _BV(2)) portBFunctions.pinTwo();
    1214:	c2 ff       	sbrs	r28, 2
    1216:	05 c0       	rjmp	.+10     	; 0x1222 <__vector_3+0x78>
    1218:	e0 91 47 04 	lds	r30, 0x0447	; 0x800447 <portBFunctions+0x4>
    121c:	f0 91 48 04 	lds	r31, 0x0448	; 0x800448 <portBFunctions+0x5>
    1220:	09 95       	icall
  if (interruptMask & _BV(3)) portBFunctions.pinThree();
    1222:	c3 ff       	sbrs	r28, 3
    1224:	05 c0       	rjmp	.+10     	; 0x1230 <__vector_3+0x86>
    1226:	e0 91 49 04 	lds	r30, 0x0449	; 0x800449 <portBFunctions+0x6>
    122a:	f0 91 4a 04 	lds	r31, 0x044A	; 0x80044a <portBFunctions+0x7>
    122e:	09 95       	icall
#if ! (defined EI_ATTINY24)
  if (interruptMask & _BV(4)) portBFunctions.pinFour();
    1230:	c4 ff       	sbrs	r28, 4
    1232:	05 c0       	rjmp	.+10     	; 0x123e <__vector_3+0x94>
    1234:	e0 91 4b 04 	lds	r30, 0x044B	; 0x80044b <portBFunctions+0x8>
    1238:	f0 91 4c 04 	lds	r31, 0x044C	; 0x80044c <portBFunctions+0x9>
    123c:	09 95       	icall
  if (interruptMask & _BV(5)) portBFunctions.pinFive();
    123e:	c5 ff       	sbrs	r28, 5
    1240:	05 c0       	rjmp	.+10     	; 0x124c <__vector_3+0xa2>
    1242:	e0 91 4d 04 	lds	r30, 0x044D	; 0x80044d <portBFunctions+0xa>
    1246:	f0 91 4e 04 	lds	r31, 0x044E	; 0x80044e <portBFunctions+0xb>
    124a:	09 95       	icall
#endif // EI_ARDUINO_INTERRUPTED_PIN
  exitPORTBISR: return;
  // FOR MEASUREMENT ONLY
  // exitPORTBISR: PORTC &= ~(1 << PC5); // SIGNAL THAT WE ARE LEAVING THE INTERRUPT
#endif // NEEDFORSPEED
}/*}}}*/
    124c:	ff 91       	pop	r31
    124e:	ef 91       	pop	r30
    1250:	cf 91       	pop	r28
    1252:	bf 91       	pop	r27
    1254:	af 91       	pop	r26
    1256:	9f 91       	pop	r25
    1258:	8f 91       	pop	r24
    125a:	7f 91       	pop	r23
    125c:	6f 91       	pop	r22
    125e:	5f 91       	pop	r21
    1260:	4f 91       	pop	r20
    1262:	3f 91       	pop	r19
    1264:	2f 91       	pop	r18
    1266:	0f 90       	pop	r0
    1268:	0f be       	out	0x3f, r0	; 63
    126a:	0f 90       	pop	r0
    126c:	1f 90       	pop	r1
    126e:	18 95       	reti

00001270 <__vector_4>:
#endif // EI_NOTPORTB

#ifndef EI_NOTPORTC
ISR(PORTC_VECT) {/*{{{*/
    1270:	1f 92       	push	r1
    1272:	0f 92       	push	r0
    1274:	0f b6       	in	r0, 0x3f	; 63
    1276:	0f 92       	push	r0
    1278:	11 24       	eor	r1, r1
    127a:	2f 93       	push	r18
    127c:	3f 93       	push	r19
    127e:	4f 93       	push	r20
    1280:	5f 93       	push	r21
    1282:	6f 93       	push	r22
    1284:	7f 93       	push	r23
    1286:	8f 93       	push	r24
    1288:	9f 93       	push	r25
    128a:	af 93       	push	r26
    128c:	bf 93       	push	r27
    128e:	cf 93       	push	r28
    1290:	ef 93       	push	r30
    1292:	ff 93       	push	r31
  uint8_t current;
  uint8_t interruptMask;
  uint8_t changedPins;
  uint8_t tmp;

  current=PINC;
    1294:	26 b1       	in	r18, 0x06	; 6
// If we trust the compiler to do this, it will use an extra register...
//  changedPins=(portSnapshotB ^ current) &
//                                       ((risingPinsPORTB & current) | (fallingPinsPORTB & ~current));
// ...so we do it ourselves:
  changedPins   = portSnapshotC ^ current;
    1296:	c0 91 21 04 	lds	r28, 0x0421	; 0x800421 <_ZL13portSnapshotC>
  tmp           = risingPinsPORTC & current;
    129a:	80 91 23 04 	lds	r24, 0x0423	; 0x800423 <risingPinsPORTC>
  interruptMask = fallingPinsPORTC & ~current;
    129e:	90 91 22 04 	lds	r25, 0x0422	; 0x800422 <fallingPinsPORTC>
    12a2:	32 2f       	mov	r19, r18
    12a4:	30 95       	com	r19
    12a6:	93 23       	and	r25, r19
  interruptMask = interruptMask | tmp;
    12a8:	82 23       	and	r24, r18
    12aa:	89 2b       	or	r24, r25
  interruptMask = changedPins & interruptMask;
#if (defined MIGHTY1284)
  interruptMask = PCMSK2 & interruptMask;
#else
  interruptMask = PCMSK1 & interruptMask;
    12ac:	90 91 6c 00 	lds	r25, 0x006C	; 0x80006c <__TEXT_REGION_LENGTH__+0x7e006c>
    12b0:	c2 27       	eor	r28, r18
    12b2:	c9 23       	and	r28, r25
    12b4:	c8 23       	and	r28, r24
#endif

  portSnapshotC = current;
    12b6:	20 93 21 04 	sts	0x0421, r18	; 0x800421 <_ZL13portSnapshotC>
#ifdef NEEDFORSPEED
#include "utility/ei_portc_speed.h"
#else
  if (interruptMask == 0) goto exitPORTCISR; // get out quickly if not interested.
    12ba:	cc 23       	and	r28, r28
    12bc:	51 f1       	breq	.+84     	; 0x1312 <__vector_4+0xa2>
#ifdef MIGHTY1284
  if (interruptMask & _BV(6)) { arduinoInterruptedPin=ARDUINO_PIN_C6; arduinoPinState=current & _BV(6); portCFunctions.pinSix(); }
  if (interruptMask & _BV(7)) { arduinoInterruptedPin=ARDUINO_PIN_C7; arduinoPinState=current & _BV(7); portCFunctions.pinSeven(); }
#endif
#else
  if (interruptMask & _BV(0)) portCFunctions.pinZero();
    12be:	c0 ff       	sbrs	r28, 0
    12c0:	05 c0       	rjmp	.+10     	; 0x12cc <__vector_4+0x5c>
    12c2:	e0 91 37 04 	lds	r30, 0x0437	; 0x800437 <portCFunctions>
    12c6:	f0 91 38 04 	lds	r31, 0x0438	; 0x800438 <portCFunctions+0x1>
    12ca:	09 95       	icall
  if (interruptMask & _BV(1)) portCFunctions.pinOne();
    12cc:	c1 ff       	sbrs	r28, 1
    12ce:	05 c0       	rjmp	.+10     	; 0x12da <__vector_4+0x6a>
    12d0:	e0 91 39 04 	lds	r30, 0x0439	; 0x800439 <portCFunctions+0x2>
    12d4:	f0 91 3a 04 	lds	r31, 0x043A	; 0x80043a <portCFunctions+0x3>
    12d8:	09 95       	icall
  if (interruptMask & _BV(2)) portCFunctions.pinTwo();
    12da:	c2 ff       	sbrs	r28, 2
    12dc:	05 c0       	rjmp	.+10     	; 0x12e8 <__vector_4+0x78>
    12de:	e0 91 3b 04 	lds	r30, 0x043B	; 0x80043b <portCFunctions+0x4>
    12e2:	f0 91 3c 04 	lds	r31, 0x043C	; 0x80043c <portCFunctions+0x5>
    12e6:	09 95       	icall
  if (interruptMask & _BV(3)) portCFunctions.pinThree();
    12e8:	c3 ff       	sbrs	r28, 3
    12ea:	05 c0       	rjmp	.+10     	; 0x12f6 <__vector_4+0x86>
    12ec:	e0 91 3d 04 	lds	r30, 0x043D	; 0x80043d <portCFunctions+0x6>
    12f0:	f0 91 3e 04 	lds	r31, 0x043E	; 0x80043e <portCFunctions+0x7>
    12f4:	09 95       	icall
  if (interruptMask & _BV(4)) portCFunctions.pinFour();
    12f6:	c4 ff       	sbrs	r28, 4
    12f8:	05 c0       	rjmp	.+10     	; 0x1304 <__vector_4+0x94>
    12fa:	e0 91 3f 04 	lds	r30, 0x043F	; 0x80043f <portCFunctions+0x8>
    12fe:	f0 91 40 04 	lds	r31, 0x0440	; 0x800440 <portCFunctions+0x9>
    1302:	09 95       	icall
  if (interruptMask & _BV(5)) portCFunctions.pinFive();
    1304:	c5 ff       	sbrs	r28, 5
    1306:	05 c0       	rjmp	.+10     	; 0x1312 <__vector_4+0xa2>
    1308:	e0 91 41 04 	lds	r30, 0x0441	; 0x800441 <portCFunctions+0xa>
    130c:	f0 91 42 04 	lds	r31, 0x0442	; 0x800442 <portCFunctions+0xb>
    1310:	09 95       	icall
  if (interruptMask & _BV(7)) portCFunctions.pinSeven();
#endif
#endif // EI_ARDUINO_INTERRUPTED_PIN
  exitPORTCISR: return;
#endif // NEEDFORSPEED
}/*}}}*/
    1312:	ff 91       	pop	r31
    1314:	ef 91       	pop	r30
    1316:	cf 91       	pop	r28
    1318:	bf 91       	pop	r27
    131a:	af 91       	pop	r26
    131c:	9f 91       	pop	r25
    131e:	8f 91       	pop	r24
    1320:	7f 91       	pop	r23
    1322:	6f 91       	pop	r22
    1324:	5f 91       	pop	r21
    1326:	4f 91       	pop	r20
    1328:	3f 91       	pop	r19
    132a:	2f 91       	pop	r18
    132c:	0f 90       	pop	r0
    132e:	0f be       	out	0x3f, r0	; 63
    1330:	0f 90       	pop	r0
    1332:	1f 90       	pop	r1
    1334:	18 95       	reti

00001336 <__vector_5>:
#endif // EI_NOTPORTC

#ifndef EI_NOTPORTD
ISR(PORTD_VECT) {/*{{{*/
    1336:	1f 92       	push	r1
    1338:	0f 92       	push	r0
    133a:	0f b6       	in	r0, 0x3f	; 63
    133c:	0f 92       	push	r0
    133e:	11 24       	eor	r1, r1
    1340:	2f 93       	push	r18
    1342:	3f 93       	push	r19
    1344:	4f 93       	push	r20
    1346:	5f 93       	push	r21
    1348:	6f 93       	push	r22
    134a:	7f 93       	push	r23
    134c:	8f 93       	push	r24
    134e:	9f 93       	push	r25
    1350:	af 93       	push	r26
    1352:	bf 93       	push	r27
    1354:	cf 93       	push	r28
    1356:	ef 93       	push	r30
    1358:	ff 93       	push	r31
  uint8_t current;
  uint8_t interruptMask;
  uint8_t changedPins;
  uint8_t tmp;

  current=PIND;
    135a:	29 b1       	in	r18, 0x09	; 9
// If we trust the compiler to do this, it will use an extra register...
//  changedPins=(portSnapshotB ^ current) &
//                                       ((risingPinsPORTB & current) | (fallingPinsPORTB & ~current));
// ...so we do it ourselves:
  changedPins   = portSnapshotD ^ current;
    135c:	c0 91 1e 04 	lds	r28, 0x041E	; 0x80041e <_ZL13portSnapshotD>
  tmp           = risingPinsPORTD & current;
    1360:	80 91 20 04 	lds	r24, 0x0420	; 0x800420 <risingPinsPORTD>
  interruptMask = fallingPinsPORTD & ~current;
    1364:	90 91 1f 04 	lds	r25, 0x041F	; 0x80041f <fallingPinsPORTD>
    1368:	32 2f       	mov	r19, r18
    136a:	30 95       	com	r19
    136c:	93 23       	and	r25, r19
  interruptMask = interruptMask | tmp;
    136e:	82 23       	and	r24, r18
    1370:	89 2b       	or	r24, r25
  interruptMask = changedPins & interruptMask;
#if (defined MIGHTY1284)
  interruptMask = PCMSK3 & interruptMask;
#else
  interruptMask = PCMSK2 & interruptMask;
    1372:	90 91 6d 00 	lds	r25, 0x006D	; 0x80006d <__TEXT_REGION_LENGTH__+0x7e006d>
    1376:	c2 27       	eor	r28, r18
    1378:	c9 23       	and	r28, r25
    137a:	c8 23       	and	r28, r24
#endif

  portSnapshotD = current;
    137c:	20 93 1e 04 	sts	0x041E, r18	; 0x80041e <_ZL13portSnapshotD>
#ifdef NEEDFORSPEED
#include "utility/ei_portd_speed.h"
#else
  if (interruptMask == 0) goto exitPORTDISR; // get out quickly if not interested.
    1380:	cc 23       	and	r28, r28
    1382:	c1 f1       	breq	.+112    	; 0x13f4 <__vector_5+0xbe>
  if (interruptMask & _BV(4)) { arduinoInterruptedPin=ARDUINO_PIN_D4; arduinoPinState=current & _BV(4); portDFunctions.pinFour(); }
  if (interruptMask & _BV(5)) { arduinoInterruptedPin=ARDUINO_PIN_D5; arduinoPinState=current & _BV(5); portDFunctions.pinFive(); }
  if (interruptMask & _BV(6)) { arduinoInterruptedPin=ARDUINO_PIN_D6; arduinoPinState=current & _BV(6); portDFunctions.pinSix(); }
  if (interruptMask & _BV(7)) { arduinoInterruptedPin=ARDUINO_PIN_D7; arduinoPinState=current & _BV(7); portDFunctions.pinSeven(); }
#else
  if (interruptMask & _BV(0)) portDFunctions.pinZero();
    1384:	c0 ff       	sbrs	r28, 0
    1386:	05 c0       	rjmp	.+10     	; 0x1392 <__vector_5+0x5c>
    1388:	e0 91 27 04 	lds	r30, 0x0427	; 0x800427 <portDFunctions>
    138c:	f0 91 28 04 	lds	r31, 0x0428	; 0x800428 <portDFunctions+0x1>
    1390:	09 95       	icall
  if (interruptMask & _BV(1)) portDFunctions.pinOne();
    1392:	c1 ff       	sbrs	r28, 1
    1394:	05 c0       	rjmp	.+10     	; 0x13a0 <__vector_5+0x6a>
    1396:	e0 91 29 04 	lds	r30, 0x0429	; 0x800429 <portDFunctions+0x2>
    139a:	f0 91 2a 04 	lds	r31, 0x042A	; 0x80042a <portDFunctions+0x3>
    139e:	09 95       	icall
  if (interruptMask & _BV(2)) portDFunctions.pinTwo();
    13a0:	c2 ff       	sbrs	r28, 2
    13a2:	05 c0       	rjmp	.+10     	; 0x13ae <__vector_5+0x78>
    13a4:	e0 91 2b 04 	lds	r30, 0x042B	; 0x80042b <portDFunctions+0x4>
    13a8:	f0 91 2c 04 	lds	r31, 0x042C	; 0x80042c <portDFunctions+0x5>
    13ac:	09 95       	icall
  if (interruptMask & _BV(3)) portDFunctions.pinThree();
    13ae:	c3 ff       	sbrs	r28, 3
    13b0:	05 c0       	rjmp	.+10     	; 0x13bc <__vector_5+0x86>
    13b2:	e0 91 2d 04 	lds	r30, 0x042D	; 0x80042d <portDFunctions+0x6>
    13b6:	f0 91 2e 04 	lds	r31, 0x042E	; 0x80042e <portDFunctions+0x7>
    13ba:	09 95       	icall
  if (interruptMask & _BV(4)) portDFunctions.pinFour();
    13bc:	c4 ff       	sbrs	r28, 4
    13be:	05 c0       	rjmp	.+10     	; 0x13ca <__vector_5+0x94>
    13c0:	e0 91 2f 04 	lds	r30, 0x042F	; 0x80042f <portDFunctions+0x8>
    13c4:	f0 91 30 04 	lds	r31, 0x0430	; 0x800430 <portDFunctions+0x9>
    13c8:	09 95       	icall
  if (interruptMask & _BV(5)) portDFunctions.pinFive();
    13ca:	c5 ff       	sbrs	r28, 5
    13cc:	05 c0       	rjmp	.+10     	; 0x13d8 <__vector_5+0xa2>
    13ce:	e0 91 31 04 	lds	r30, 0x0431	; 0x800431 <portDFunctions+0xa>
    13d2:	f0 91 32 04 	lds	r31, 0x0432	; 0x800432 <portDFunctions+0xb>
    13d6:	09 95       	icall
  if (interruptMask & _BV(6)) portDFunctions.pinSix();
    13d8:	c6 ff       	sbrs	r28, 6
    13da:	05 c0       	rjmp	.+10     	; 0x13e6 <__vector_5+0xb0>
    13dc:	e0 91 33 04 	lds	r30, 0x0433	; 0x800433 <portDFunctions+0xc>
    13e0:	f0 91 34 04 	lds	r31, 0x0434	; 0x800434 <portDFunctions+0xd>
    13e4:	09 95       	icall
  if (interruptMask & _BV(7)) portDFunctions.pinSeven();
    13e6:	c7 ff       	sbrs	r28, 7
    13e8:	05 c0       	rjmp	.+10     	; 0x13f4 <__vector_5+0xbe>
    13ea:	e0 91 35 04 	lds	r30, 0x0435	; 0x800435 <portDFunctions+0xe>
    13ee:	f0 91 36 04 	lds	r31, 0x0436	; 0x800436 <portDFunctions+0xf>
    13f2:	09 95       	icall
#endif // EI_ARDUINO_INTERRUPTED_PIN
  exitPORTDISR: return;
#endif // NEEDFORSPEED
}/*}}}*/
    13f4:	ff 91       	pop	r31
    13f6:	ef 91       	pop	r30
    13f8:	cf 91       	pop	r28
    13fa:	bf 91       	pop	r27
    13fc:	af 91       	pop	r26
    13fe:	9f 91       	pop	r25
    1400:	8f 91       	pop	r24
    1402:	7f 91       	pop	r23
    1404:	6f 91       	pop	r22
    1406:	5f 91       	pop	r21
    1408:	4f 91       	pop	r20
    140a:	3f 91       	pop	r19
    140c:	2f 91       	pop	r18
    140e:	0f 90       	pop	r0
    1410:	0f be       	out	0x3f, r0	; 63
    1412:	0f 90       	pop	r0
    1414:	1f 90       	pop	r1
    1416:	18 95       	reti

00001418 <_Z11setup_pcintv>:
}

void setup_pcint()
{
  
  enableInterrupt(PD2, doPD2Int, CHANGE); 
    1418:	41 e0       	ldi	r20, 0x01	; 1
    141a:	68 e1       	ldi	r22, 0x18	; 24
    141c:	73 e0       	ldi	r23, 0x03	; 3
    141e:	82 e0       	ldi	r24, 0x02	; 2
    1420:	0e 94 b7 07 	call	0xf6e	; 0xf6e <_Z15enableInterrupthPFvvEh>
  enableInterrupt(PD3, doPD3Int, CHANGE); 
    1424:	41 e0       	ldi	r20, 0x01	; 1
    1426:	65 ee       	ldi	r22, 0xE5	; 229
    1428:	74 e0       	ldi	r23, 0x04	; 4
    142a:	83 e0       	ldi	r24, 0x03	; 3
    142c:	0e 94 b7 07 	call	0xf6e	; 0xf6e <_Z15enableInterrupthPFvvEh>
  enableInterrupt(PD5, doPD5Int, CHANGE); 
    1430:	41 e0       	ldi	r20, 0x01	; 1
    1432:	60 e6       	ldi	r22, 0x60	; 96
    1434:	73 e0       	ldi	r23, 0x03	; 3
    1436:	85 e0       	ldi	r24, 0x05	; 5
    1438:	0e 94 b7 07 	call	0xf6e	; 0xf6e <_Z15enableInterrupthPFvvEh>
  enableInterrupt(PD6, doPD6Int, CHANGE);
    143c:	41 e0       	ldi	r20, 0x01	; 1
    143e:	69 ec       	ldi	r22, 0xC9	; 201
    1440:	73 e0       	ldi	r23, 0x03	; 3
    1442:	86 e0       	ldi	r24, 0x06	; 6
    1444:	0c 94 b7 07 	jmp	0xf6e	; 0xf6e <_Z15enableInterrupthPFvvEh>

00001448 <_Z10oled_setupv>:
int linespace = 9;  //pixels for a newline

void oled_setup() 
{

  display.begin(SSD1306_SWITCHCAPVCC, 0x3C);  // initialize with the I2C addr 0x3C (for the 128x32)
    1448:	21 e0       	ldi	r18, 0x01	; 1
    144a:	4c e3       	ldi	r20, 0x3C	; 60
    144c:	62 e0       	ldi	r22, 0x02	; 2
    144e:	80 ee       	ldi	r24, 0xE0	; 224
    1450:	93 e0       	ldi	r25, 0x03	; 3
    1452:	0e 94 a9 1d 	call	0x3b52	; 0x3b52 <_ZN16Adafruit_SSD13065beginEhhb>
  display.display();
    1456:	80 ee       	ldi	r24, 0xE0	; 224
    1458:	93 e0       	ldi	r25, 0x03	; 3
    145a:	0e 94 da 1e 	call	0x3db4	; 0x3db4 <_ZN16Adafruit_SSD13067displayEv>
  display.clearDisplay();
    145e:	80 ee       	ldi	r24, 0xE0	; 224
    1460:	93 e0       	ldi	r25, 0x03	; 3
    1462:	0c 94 2f 1d 	jmp	0x3a5e	; 0x3a5e <_ZN16Adafruit_SSD130612clearDisplayEv>

00001466 <_Z13oled_set_textii>:
}

void oled_set_text(int pSize, int pColour) 
{
    1466:	cf 93       	push	r28
    1468:	df 93       	push	r29
    146a:	eb 01       	movw	r28, r22
  display.setTextSize(pSize);
    146c:	68 2f       	mov	r22, r24
    146e:	80 ee       	ldi	r24, 0xE0	; 224
    1470:	93 e0       	ldi	r25, 0x03	; 3
    1472:	0e 94 93 19 	call	0x3326	; 0x3326 <_ZN12Adafruit_GFX11setTextSizeEh>
  display.setTextColor(pColour);
    1476:	be 01       	movw	r22, r28
    1478:	80 ee       	ldi	r24, 0xE0	; 224
    147a:	93 e0       	ldi	r25, 0x03	; 3
}
    147c:	df 91       	pop	r29
    147e:	cf 91       	pop	r28
}

void oled_set_text(int pSize, int pColour) 
{
  display.setTextSize(pSize);
  display.setTextColor(pColour);
    1480:	0c 94 99 19 	jmp	0x3332	; 0x3332 <_ZN12Adafruit_GFX12setTextColorEj>

00001484 <_Z10oled_resetv>:
}

void oled_reset() 
{
  display.clearDisplay();
    1484:	80 ee       	ldi	r24, 0xE0	; 224
    1486:	93 e0       	ldi	r25, 0x03	; 3
    1488:	0e 94 2f 1d 	call	0x3a5e	; 0x3a5e <_ZN16Adafruit_SSD130612clearDisplayEv>
  display.setCursor(0,0);
    148c:	40 e0       	ldi	r20, 0x00	; 0
    148e:	50 e0       	ldi	r21, 0x00	; 0
    1490:	60 e0       	ldi	r22, 0x00	; 0
    1492:	70 e0       	ldi	r23, 0x00	; 0
    1494:	80 ee       	ldi	r24, 0xE0	; 224
    1496:	93 e0       	ldi	r25, 0x03	; 3
    1498:	0c 94 8d 19 	jmp	0x331a	; 0x331a <_ZN12Adafruit_GFX9setCursorEii>

0000149c <_Z16printCurrentFreqv>:
  
}

void printCurrentFreq()
{
  if(currentFreq>999)
    149c:	80 91 55 04 	lds	r24, 0x0455	; 0x800455 <currentFreq>
    14a0:	90 91 56 04 	lds	r25, 0x0456	; 0x800456 <currentFreq+0x1>
    14a4:	a0 91 57 04 	lds	r26, 0x0457	; 0x800457 <currentFreq+0x2>
    14a8:	b0 91 58 04 	lds	r27, 0x0458	; 0x800458 <currentFreq+0x3>
    14ac:	88 3e       	cpi	r24, 0xE8	; 232
    14ae:	93 40       	sbci	r25, 0x03	; 3
    14b0:	a1 05       	cpc	r26, r1
    14b2:	b1 05       	cpc	r27, r1
    14b4:	dc f0       	brlt	.+54     	; 0x14ec <_Z16printCurrentFreqv+0x50>
  {      
    display.print(currentFreq/1000.0); 
    14b6:	60 91 55 04 	lds	r22, 0x0455	; 0x800455 <currentFreq>
    14ba:	70 91 56 04 	lds	r23, 0x0456	; 0x800456 <currentFreq+0x1>
    14be:	80 91 57 04 	lds	r24, 0x0457	; 0x800457 <currentFreq+0x2>
    14c2:	90 91 58 04 	lds	r25, 0x0458	; 0x800458 <currentFreq+0x3>
    14c6:	0e 94 77 0d 	call	0x1aee	; 0x1aee <__floatsisf>
    14ca:	20 e0       	ldi	r18, 0x00	; 0
    14cc:	30 e0       	ldi	r19, 0x00	; 0
    14ce:	4a e7       	ldi	r20, 0x7A	; 122
    14d0:	54 e4       	ldi	r21, 0x44	; 68
    14d2:	0e 94 cd 0c 	call	0x199a	; 0x199a <__divsf3>
    14d6:	ab 01       	movw	r20, r22
    14d8:	bc 01       	movw	r22, r24
    14da:	22 e0       	ldi	r18, 0x02	; 2
    14dc:	30 e0       	ldi	r19, 0x00	; 0
    14de:	80 ee       	ldi	r24, 0xE0	; 224
    14e0:	93 e0       	ldi	r25, 0x03	; 3
    14e2:	0e 94 1b 12 	call	0x2436	; 0x2436 <_ZN5Print5printEdi>
    
    display.print("KHz");        
    14e6:	6b e2       	ldi	r22, 0x2B	; 43
    14e8:	73 e0       	ldi	r23, 0x03	; 3
    14ea:	10 c0       	rjmp	.+32     	; 0x150c <_Z16printCurrentFreqv+0x70>
  }
  else
  {      
    display.print(currentFreq);
    14ec:	40 91 55 04 	lds	r20, 0x0455	; 0x800455 <currentFreq>
    14f0:	50 91 56 04 	lds	r21, 0x0456	; 0x800456 <currentFreq+0x1>
    14f4:	60 91 57 04 	lds	r22, 0x0457	; 0x800457 <currentFreq+0x2>
    14f8:	70 91 58 04 	lds	r23, 0x0458	; 0x800458 <currentFreq+0x3>
    14fc:	2a e0       	ldi	r18, 0x0A	; 10
    14fe:	30 e0       	ldi	r19, 0x00	; 0
    1500:	80 ee       	ldi	r24, 0xE0	; 224
    1502:	93 e0       	ldi	r25, 0x03	; 3
    1504:	0e 94 f1 10 	call	0x21e2	; 0x21e2 <_ZN5Print5printEli>
   
    display.print("Hz");      
    1508:	6c e2       	ldi	r22, 0x2C	; 44
    150a:	73 e0       	ldi	r23, 0x03	; 3
    150c:	80 ee       	ldi	r24, 0xE0	; 224
    150e:	93 e0       	ldi	r25, 0x03	; 3
    1510:	0c 94 8c 10 	jmp	0x2118	; 0x2118 <_ZN5Print5printEPKc>

00001514 <_Z14printLowerFreqv>:
  }
}

void printLowerFreq()
{
  if(selectedLowerFreq>999)
    1514:	80 91 59 04 	lds	r24, 0x0459	; 0x800459 <selectedLowerFreq>
    1518:	90 91 5a 04 	lds	r25, 0x045A	; 0x80045a <selectedLowerFreq+0x1>
    151c:	a0 91 5b 04 	lds	r26, 0x045B	; 0x80045b <selectedLowerFreq+0x2>
    1520:	b0 91 5c 04 	lds	r27, 0x045C	; 0x80045c <selectedLowerFreq+0x3>
    1524:	88 3e       	cpi	r24, 0xE8	; 232
    1526:	93 40       	sbci	r25, 0x03	; 3
    1528:	a1 05       	cpc	r26, r1
    152a:	b1 05       	cpc	r27, r1
    152c:	dc f0       	brlt	.+54     	; 0x1564 <_Z14printLowerFreqv+0x50>
  {      
    display.print(selectedLowerFreq/1000.0); 
    152e:	60 91 59 04 	lds	r22, 0x0459	; 0x800459 <selectedLowerFreq>
    1532:	70 91 5a 04 	lds	r23, 0x045A	; 0x80045a <selectedLowerFreq+0x1>
    1536:	80 91 5b 04 	lds	r24, 0x045B	; 0x80045b <selectedLowerFreq+0x2>
    153a:	90 91 5c 04 	lds	r25, 0x045C	; 0x80045c <selectedLowerFreq+0x3>
    153e:	0e 94 77 0d 	call	0x1aee	; 0x1aee <__floatsisf>
    1542:	20 e0       	ldi	r18, 0x00	; 0
    1544:	30 e0       	ldi	r19, 0x00	; 0
    1546:	4a e7       	ldi	r20, 0x7A	; 122
    1548:	54 e4       	ldi	r21, 0x44	; 68
    154a:	0e 94 cd 0c 	call	0x199a	; 0x199a <__divsf3>
    154e:	ab 01       	movw	r20, r22
    1550:	bc 01       	movw	r22, r24
    1552:	22 e0       	ldi	r18, 0x02	; 2
    1554:	30 e0       	ldi	r19, 0x00	; 0
    1556:	80 ee       	ldi	r24, 0xE0	; 224
    1558:	93 e0       	ldi	r25, 0x03	; 3
    155a:	0e 94 1b 12 	call	0x2436	; 0x2436 <_ZN5Print5printEdi>
    
    display.print("KHz");        
    155e:	6b e2       	ldi	r22, 0x2B	; 43
    1560:	73 e0       	ldi	r23, 0x03	; 3
    1562:	10 c0       	rjmp	.+32     	; 0x1584 <_Z14printLowerFreqv+0x70>
  }
  else
  {      
    display.print(selectedLowerFreq);
    1564:	40 91 59 04 	lds	r20, 0x0459	; 0x800459 <selectedLowerFreq>
    1568:	50 91 5a 04 	lds	r21, 0x045A	; 0x80045a <selectedLowerFreq+0x1>
    156c:	60 91 5b 04 	lds	r22, 0x045B	; 0x80045b <selectedLowerFreq+0x2>
    1570:	70 91 5c 04 	lds	r23, 0x045C	; 0x80045c <selectedLowerFreq+0x3>
    1574:	2a e0       	ldi	r18, 0x0A	; 10
    1576:	30 e0       	ldi	r19, 0x00	; 0
    1578:	80 ee       	ldi	r24, 0xE0	; 224
    157a:	93 e0       	ldi	r25, 0x03	; 3
    157c:	0e 94 f1 10 	call	0x21e2	; 0x21e2 <_ZN5Print5printEli>
   
    display.print("Hz");      
    1580:	6c e2       	ldi	r22, 0x2C	; 44
    1582:	73 e0       	ldi	r23, 0x03	; 3
    1584:	80 ee       	ldi	r24, 0xE0	; 224
    1586:	93 e0       	ldi	r25, 0x03	; 3
    1588:	0c 94 8c 10 	jmp	0x2118	; 0x2118 <_ZN5Print5printEPKc>

0000158c <_Z14printUpperFreqv>:
  }
}

void printUpperFreq()
{
  if(selectedUpperFreq>999)
    158c:	80 91 5d 04 	lds	r24, 0x045D	; 0x80045d <selectedUpperFreq>
    1590:	90 91 5e 04 	lds	r25, 0x045E	; 0x80045e <selectedUpperFreq+0x1>
    1594:	a0 91 5f 04 	lds	r26, 0x045F	; 0x80045f <selectedUpperFreq+0x2>
    1598:	b0 91 60 04 	lds	r27, 0x0460	; 0x800460 <selectedUpperFreq+0x3>
    159c:	88 3e       	cpi	r24, 0xE8	; 232
    159e:	93 40       	sbci	r25, 0x03	; 3
    15a0:	a1 05       	cpc	r26, r1
    15a2:	b1 05       	cpc	r27, r1
    15a4:	dc f0       	brlt	.+54     	; 0x15dc <_Z14printUpperFreqv+0x50>
  {      
    display.print(selectedUpperFreq/1000.0); 
    15a6:	60 91 5d 04 	lds	r22, 0x045D	; 0x80045d <selectedUpperFreq>
    15aa:	70 91 5e 04 	lds	r23, 0x045E	; 0x80045e <selectedUpperFreq+0x1>
    15ae:	80 91 5f 04 	lds	r24, 0x045F	; 0x80045f <selectedUpperFreq+0x2>
    15b2:	90 91 60 04 	lds	r25, 0x0460	; 0x800460 <selectedUpperFreq+0x3>
    15b6:	0e 94 77 0d 	call	0x1aee	; 0x1aee <__floatsisf>
    15ba:	20 e0       	ldi	r18, 0x00	; 0
    15bc:	30 e0       	ldi	r19, 0x00	; 0
    15be:	4a e7       	ldi	r20, 0x7A	; 122
    15c0:	54 e4       	ldi	r21, 0x44	; 68
    15c2:	0e 94 cd 0c 	call	0x199a	; 0x199a <__divsf3>
    15c6:	ab 01       	movw	r20, r22
    15c8:	bc 01       	movw	r22, r24
    15ca:	22 e0       	ldi	r18, 0x02	; 2
    15cc:	30 e0       	ldi	r19, 0x00	; 0
    15ce:	80 ee       	ldi	r24, 0xE0	; 224
    15d0:	93 e0       	ldi	r25, 0x03	; 3
    15d2:	0e 94 1b 12 	call	0x2436	; 0x2436 <_ZN5Print5printEdi>
   
    display.print("KHz");        
    15d6:	6b e2       	ldi	r22, 0x2B	; 43
    15d8:	73 e0       	ldi	r23, 0x03	; 3
    15da:	10 c0       	rjmp	.+32     	; 0x15fc <_Z14printUpperFreqv+0x70>
  }
  else
  {      
    display.print(selectedUpperFreq);
    15dc:	40 91 5d 04 	lds	r20, 0x045D	; 0x80045d <selectedUpperFreq>
    15e0:	50 91 5e 04 	lds	r21, 0x045E	; 0x80045e <selectedUpperFreq+0x1>
    15e4:	60 91 5f 04 	lds	r22, 0x045F	; 0x80045f <selectedUpperFreq+0x2>
    15e8:	70 91 60 04 	lds	r23, 0x0460	; 0x800460 <selectedUpperFreq+0x3>
    15ec:	2a e0       	ldi	r18, 0x0A	; 10
    15ee:	30 e0       	ldi	r19, 0x00	; 0
    15f0:	80 ee       	ldi	r24, 0xE0	; 224
    15f2:	93 e0       	ldi	r25, 0x03	; 3
    15f4:	0e 94 f1 10 	call	0x21e2	; 0x21e2 <_ZN5Print5printEli>
    
    display.print("Hz");      
    15f8:	6c e2       	ldi	r22, 0x2C	; 44
    15fa:	73 e0       	ldi	r23, 0x03	; 3
    15fc:	80 ee       	ldi	r24, 0xE0	; 224
    15fe:	93 e0       	ldi	r25, 0x03	; 3
    1600:	0c 94 8c 10 	jmp	0x2118	; 0x2118 <_ZN5Print5printEPKc>

00001604 <_Z9oled_drawv>:

void oled_draw()
{


  oled_reset();
    1604:	0e 94 42 0a 	call	0x1484	; 0x1484 <_Z10oled_resetv>
  oled_set_text(1,1);
    1608:	61 e0       	ldi	r22, 0x01	; 1
    160a:	70 e0       	ldi	r23, 0x00	; 0
    160c:	81 e0       	ldi	r24, 0x01	; 1
    160e:	90 e0       	ldi	r25, 0x00	; 0
    1610:	0e 94 33 0a 	call	0x1466	; 0x1466 <_Z13oled_set_textii>
  
  // print function
  display.setCursor(0,0); 
    1614:	40 e0       	ldi	r20, 0x00	; 0
    1616:	50 e0       	ldi	r21, 0x00	; 0
    1618:	60 e0       	ldi	r22, 0x00	; 0
    161a:	70 e0       	ldi	r23, 0x00	; 0
    161c:	80 ee       	ldi	r24, 0xE0	; 224
    161e:	93 e0       	ldi	r25, 0x03	; 3
    1620:	0e 94 8d 19 	call	0x331a	; 0x331a <_ZN12Adafruit_GFX9setCursorEii>
  if(func==SINE) 
    1624:	80 91 69 04 	lds	r24, 0x0469	; 0x800469 <func>
    1628:	81 11       	cpse	r24, r1
    162a:	03 c0       	rjmp	.+6      	; 0x1632 <_Z9oled_drawv+0x2e>
  {
    display.print("SINE");
    162c:	6f e2       	ldi	r22, 0x2F	; 47
    162e:	73 e0       	ldi	r23, 0x03	; 3
    1630:	09 c0       	rjmp	.+18     	; 0x1644 <_Z9oled_drawv+0x40>
  }
  else if(func==SQUARE)
    1632:	82 30       	cpi	r24, 0x02	; 2
    1634:	19 f4       	brne	.+6      	; 0x163c <_Z9oled_drawv+0x38>
  {
    display.print("SQ");
    1636:	64 e3       	ldi	r22, 0x34	; 52
    1638:	73 e0       	ldi	r23, 0x03	; 3
    163a:	04 c0       	rjmp	.+8      	; 0x1644 <_Z9oled_drawv+0x40>
  }
  else if(func == TRIANGLE)
    163c:	81 30       	cpi	r24, 0x01	; 1
    163e:	31 f4       	brne	.+12     	; 0x164c <_Z9oled_drawv+0x48>
  {
    display.print("TRI");
    1640:	67 e3       	ldi	r22, 0x37	; 55
    1642:	73 e0       	ldi	r23, 0x03	; 3
    1644:	80 ee       	ldi	r24, 0xE0	; 224
    1646:	93 e0       	ldi	r25, 0x03	; 3
    1648:	0e 94 8c 10 	call	0x2118	; 0x2118 <_ZN5Print5printEPKc>
  }

  
  if(mode == NORMAL)
    164c:	80 91 63 04 	lds	r24, 0x0463	; 0x800463 <mode>
    1650:	81 11       	cpse	r24, r1
    1652:	1f c0       	rjmp	.+62     	; 0x1692 <_Z9oled_drawv+0x8e>
  {
    display.print(" NORMAL");
    1654:	6b e3       	ldi	r22, 0x3B	; 59
    1656:	73 e0       	ldi	r23, 0x03	; 3
    1658:	80 ee       	ldi	r24, 0xE0	; 224
    165a:	93 e0       	ldi	r25, 0x03	; 3
    165c:	0e 94 8c 10 	call	0x2118	; 0x2118 <_ZN5Print5printEPKc>
    display.setCursor(20,linespace);
    1660:	40 91 00 01 	lds	r20, 0x0100	; 0x800100 <__data_start>
    1664:	50 91 01 01 	lds	r21, 0x0101	; 0x800101 <__data_start+0x1>
    1668:	64 e1       	ldi	r22, 0x14	; 20
    166a:	70 e0       	ldi	r23, 0x00	; 0
    166c:	80 ee       	ldi	r24, 0xE0	; 224
    166e:	93 e0       	ldi	r25, 0x03	; 3
    1670:	0e 94 8d 19 	call	0x331a	; 0x331a <_ZN12Adafruit_GFX9setCursorEii>
   
    // print upper freq only
    oled_set_text(2,1);
    1674:	61 e0       	ldi	r22, 0x01	; 1
    1676:	70 e0       	ldi	r23, 0x00	; 0
    1678:	82 e0       	ldi	r24, 0x02	; 2
    167a:	90 e0       	ldi	r25, 0x00	; 0
    167c:	0e 94 33 0a 	call	0x1466	; 0x1466 <_Z13oled_set_textii>
    printCurrentFreq();
    1680:	0e 94 4e 0a 	call	0x149c	; 0x149c <_Z16printCurrentFreqv>
    oled_set_text(1,1);
    1684:	61 e0       	ldi	r22, 0x01	; 1
    1686:	70 e0       	ldi	r23, 0x00	; 0
    1688:	81 e0       	ldi	r24, 0x01	; 1
    168a:	90 e0       	ldi	r25, 0x00	; 0
    168c:	0e 94 33 0a 	call	0x1466	; 0x1466 <_Z13oled_set_textii>
    1690:	40 c0       	rjmp	.+128    	; 0x1712 <_Z9oled_drawv+0x10e>
    
  }
  else 
  {
    display.print(" SWEEP");
    1692:	63 e4       	ldi	r22, 0x43	; 67
    1694:	73 e0       	ldi	r23, 0x03	; 3
    1696:	80 ee       	ldi	r24, 0xE0	; 224
    1698:	93 e0       	ldi	r25, 0x03	; 3
    169a:	0e 94 8c 10 	call	0x2118	; 0x2118 <_ZN5Print5printEPKc>
    display.print(" Vel=");
    169e:	6a e4       	ldi	r22, 0x4A	; 74
    16a0:	73 e0       	ldi	r23, 0x03	; 3
    16a2:	80 ee       	ldi	r24, 0xE0	; 224
    16a4:	93 e0       	ldi	r25, 0x03	; 3
    16a6:	0e 94 8c 10 	call	0x2118	; 0x2118 <_ZN5Print5printEPKc>
    display.print(ADCInput6);
    16aa:	60 91 6e 04 	lds	r22, 0x046E	; 0x80046e <ADCInput6>
    16ae:	70 91 6f 04 	lds	r23, 0x046F	; 0x80046f <ADCInput6+0x1>
    16b2:	4a e0       	ldi	r20, 0x0A	; 10
    16b4:	50 e0       	ldi	r21, 0x00	; 0
    16b6:	80 ee       	ldi	r24, 0xE0	; 224
    16b8:	93 e0       	ldi	r25, 0x03	; 3
    16ba:	0e 94 39 11 	call	0x2272	; 0x2272 <_ZN5Print5printEii>
    
    display.setCursor(20,linespace);
    16be:	40 91 00 01 	lds	r20, 0x0100	; 0x800100 <__data_start>
    16c2:	50 91 01 01 	lds	r21, 0x0101	; 0x800101 <__data_start+0x1>
    16c6:	64 e1       	ldi	r22, 0x14	; 20
    16c8:	70 e0       	ldi	r23, 0x00	; 0
    16ca:	80 ee       	ldi	r24, 0xE0	; 224
    16cc:	93 e0       	ldi	r25, 0x03	; 3
    16ce:	0e 94 8d 19 	call	0x331a	; 0x331a <_ZN12Adafruit_GFX9setCursorEii>

    oled_set_text(2,1);
    16d2:	61 e0       	ldi	r22, 0x01	; 1
    16d4:	70 e0       	ldi	r23, 0x00	; 0
    16d6:	82 e0       	ldi	r24, 0x02	; 2
    16d8:	90 e0       	ldi	r25, 0x00	; 0
    16da:	0e 94 33 0a 	call	0x1466	; 0x1466 <_Z13oled_set_textii>
    printCurrentFreq();
    16de:	0e 94 4e 0a 	call	0x149c	; 0x149c <_Z16printCurrentFreqv>
    oled_set_text(1,1);
    16e2:	61 e0       	ldi	r22, 0x01	; 1
    16e4:	70 e0       	ldi	r23, 0x00	; 0
    16e6:	81 e0       	ldi	r24, 0x01	; 1
    16e8:	90 e0       	ldi	r25, 0x00	; 0
    16ea:	0e 94 33 0a 	call	0x1466	; 0x1466 <_Z13oled_set_textii>

    display.setCursor(0,25);
    16ee:	49 e1       	ldi	r20, 0x19	; 25
    16f0:	50 e0       	ldi	r21, 0x00	; 0
    16f2:	60 e0       	ldi	r22, 0x00	; 0
    16f4:	70 e0       	ldi	r23, 0x00	; 0
    16f6:	80 ee       	ldi	r24, 0xE0	; 224
    16f8:	93 e0       	ldi	r25, 0x03	; 3
    16fa:	0e 94 8d 19 	call	0x331a	; 0x331a <_ZN12Adafruit_GFX9setCursorEii>
    printLowerFreq();
    16fe:	0e 94 8a 0a 	call	0x1514	; 0x1514 <_Z14printLowerFreqv>
    display.print(" -> ");
    1702:	60 e5       	ldi	r22, 0x50	; 80
    1704:	73 e0       	ldi	r23, 0x03	; 3
    1706:	80 ee       	ldi	r24, 0xE0	; 224
    1708:	93 e0       	ldi	r25, 0x03	; 3
    170a:	0e 94 8c 10 	call	0x2118	; 0x2118 <_ZN5Print5printEPKc>
    printUpperFreq();
    170e:	0e 94 c6 0a 	call	0x158c	; 0x158c <_Z14printUpperFreqv>

  }

  display.display();
    1712:	80 ee       	ldi	r24, 0xE0	; 224
    1714:	93 e0       	ldi	r25, 0x03	; 3
    1716:	0c 94 da 1e 	jmp	0x3db4	; 0x3db4 <_ZN16Adafruit_SSD13067displayEv>

0000171a <setup>:
  public:
    inline HardwareSerial(
      volatile uint8_t *ubrrh, volatile uint8_t *ubrrl,
      volatile uint8_t *ucsra, volatile uint8_t *ucsrb,
      volatile uint8_t *ucsrc, volatile uint8_t *udr);
    void begin(unsigned long baud) { begin(baud, SERIAL_8N1); }
    171a:	26 e0       	ldi	r18, 0x06	; 6
    171c:	40 e8       	ldi	r20, 0x80	; 128
    171e:	55 e2       	ldi	r21, 0x25	; 37
    1720:	60 e0       	ldi	r22, 0x00	; 0
    1722:	70 e0       	ldi	r23, 0x00	; 0
    1724:	8c e7       	ldi	r24, 0x7C	; 124
    1726:	94 e0       	ldi	r25, 0x04	; 4
    1728:	0e 94 45 0f 	call	0x1e8a	; 0x1e8a <_ZN14HardwareSerial5beginEmh>

void setup() 
{
  Serial.begin(9600);
  
  Timer1.initialize(clkspeed);
    172c:	80 91 0c 01 	lds	r24, 0x010C	; 0x80010c <clkspeed>
    1730:	90 91 0d 01 	lds	r25, 0x010D	; 0x80010d <clkspeed+0x1>
    1734:	a0 91 0e 01 	lds	r26, 0x010E	; 0x80010e <clkspeed+0x2>
    1738:	b0 91 0f 01 	lds	r27, 0x010F	; 0x80010f <clkspeed+0x3>
  public:
    //****************************
    //  Configuration
    //****************************
    void initialize(unsigned long microseconds=1000000) __attribute__((always_inline)) {
	TCCR1B = _BV(WGM13);        // set mode as phase and frequency correct pwm, stop the timer
    173c:	20 e1       	ldi	r18, 0x10	; 16
    173e:	20 93 81 00 	sts	0x0081, r18	; 0x800081 <__TEXT_REGION_LENGTH__+0x7e0081>
	TCCR1A = 0;                 // clear control register A 
    1742:	10 92 80 00 	sts	0x0080, r1	; 0x800080 <__TEXT_REGION_LENGTH__+0x7e0080>
	setPeriod(microseconds);
    }
    void setPeriod(unsigned long microseconds) __attribute__((always_inline)) {
	const unsigned long cycles = (F_CPU / 2000000) * microseconds;
    1746:	63 e0       	ldi	r22, 0x03	; 3
    1748:	88 0f       	add	r24, r24
    174a:	99 1f       	adc	r25, r25
    174c:	aa 1f       	adc	r26, r26
    174e:	bb 1f       	adc	r27, r27
    1750:	6a 95       	dec	r22
    1752:	d1 f7       	brne	.-12     	; 0x1748 <setup+0x2e>
	if (cycles < TIMER1_RESOLUTION) {
    1754:	00 97       	sbiw	r24, 0x00	; 0
    1756:	21 e0       	ldi	r18, 0x01	; 1
    1758:	a2 07       	cpc	r26, r18
    175a:	b1 05       	cpc	r27, r1
    175c:	20 f4       	brcc	.+8      	; 0x1766 <setup+0x4c>
		clockSelectBits = _BV(CS10);
    175e:	21 e0       	ldi	r18, 0x01	; 1
    1760:	20 93 28 05 	sts	0x0528, r18	; 0x800528 <_ZN8TimerOne15clockSelectBitsE>
    1764:	42 c0       	rjmp	.+132    	; 0x17ea <setup+0xd0>
		pwmPeriod = cycles;
	} else
	if (cycles < TIMER1_RESOLUTION * 8) {
    1766:	00 97       	sbiw	r24, 0x00	; 0
    1768:	28 e0       	ldi	r18, 0x08	; 8
    176a:	a2 07       	cpc	r26, r18
    176c:	b1 05       	cpc	r27, r1
    176e:	58 f4       	brcc	.+22     	; 0x1786 <setup+0x6c>
		clockSelectBits = _BV(CS11);
    1770:	22 e0       	ldi	r18, 0x02	; 2
    1772:	20 93 28 05 	sts	0x0528, r18	; 0x800528 <_ZN8TimerOne15clockSelectBitsE>
		pwmPeriod = cycles / 8;
    1776:	53 e0       	ldi	r21, 0x03	; 3
    1778:	b6 95       	lsr	r27
    177a:	a7 95       	ror	r26
    177c:	97 95       	ror	r25
    177e:	87 95       	ror	r24
    1780:	5a 95       	dec	r21
    1782:	d1 f7       	brne	.-12     	; 0x1778 <setup+0x5e>
    1784:	32 c0       	rjmp	.+100    	; 0x17ea <setup+0xd0>
	} else
	if (cycles < TIMER1_RESOLUTION * 64) {
    1786:	00 97       	sbiw	r24, 0x00	; 0
    1788:	20 e4       	ldi	r18, 0x40	; 64
    178a:	a2 07       	cpc	r26, r18
    178c:	b1 05       	cpc	r27, r1
    178e:	58 f4       	brcc	.+22     	; 0x17a6 <setup+0x8c>
		clockSelectBits = _BV(CS11) | _BV(CS10);
    1790:	23 e0       	ldi	r18, 0x03	; 3
    1792:	20 93 28 05 	sts	0x0528, r18	; 0x800528 <_ZN8TimerOne15clockSelectBitsE>
		pwmPeriod = cycles / 64;
    1796:	46 e0       	ldi	r20, 0x06	; 6
    1798:	b6 95       	lsr	r27
    179a:	a7 95       	ror	r26
    179c:	97 95       	ror	r25
    179e:	87 95       	ror	r24
    17a0:	4a 95       	dec	r20
    17a2:	d1 f7       	brne	.-12     	; 0x1798 <setup+0x7e>
    17a4:	22 c0       	rjmp	.+68     	; 0x17ea <setup+0xd0>
	} else
	if (cycles < TIMER1_RESOLUTION * 256) {
    17a6:	00 97       	sbiw	r24, 0x00	; 0
    17a8:	a1 05       	cpc	r26, r1
    17aa:	21 e0       	ldi	r18, 0x01	; 1
    17ac:	b2 07       	cpc	r27, r18
    17ae:	40 f4       	brcc	.+16     	; 0x17c0 <setup+0xa6>
		clockSelectBits = _BV(CS12);
    17b0:	24 e0       	ldi	r18, 0x04	; 4
    17b2:	20 93 28 05 	sts	0x0528, r18	; 0x800528 <_ZN8TimerOne15clockSelectBitsE>
		pwmPeriod = cycles / 256;
    17b6:	89 2f       	mov	r24, r25
    17b8:	9a 2f       	mov	r25, r26
    17ba:	ab 2f       	mov	r26, r27
    17bc:	bb 27       	eor	r27, r27
    17be:	15 c0       	rjmp	.+42     	; 0x17ea <setup+0xd0>
	} else
	if (cycles < TIMER1_RESOLUTION * 1024) {
    17c0:	00 97       	sbiw	r24, 0x00	; 0
    17c2:	a1 05       	cpc	r26, r1
    17c4:	24 e0       	ldi	r18, 0x04	; 4
    17c6:	b2 07       	cpc	r27, r18
    17c8:	58 f4       	brcc	.+22     	; 0x17e0 <setup+0xc6>
		clockSelectBits = _BV(CS12) | _BV(CS10);
    17ca:	25 e0       	ldi	r18, 0x05	; 5
    17cc:	20 93 28 05 	sts	0x0528, r18	; 0x800528 <_ZN8TimerOne15clockSelectBitsE>
		pwmPeriod = cycles / 1024;
    17d0:	2a e0       	ldi	r18, 0x0A	; 10
    17d2:	b6 95       	lsr	r27
    17d4:	a7 95       	ror	r26
    17d6:	97 95       	ror	r25
    17d8:	87 95       	ror	r24
    17da:	2a 95       	dec	r18
    17dc:	d1 f7       	brne	.-12     	; 0x17d2 <setup+0xb8>
    17de:	05 c0       	rjmp	.+10     	; 0x17ea <setup+0xd0>
	} else {
		clockSelectBits = _BV(CS12) | _BV(CS10);
    17e0:	85 e0       	ldi	r24, 0x05	; 5
    17e2:	80 93 28 05 	sts	0x0528, r24	; 0x800528 <_ZN8TimerOne15clockSelectBitsE>
		pwmPeriod = TIMER1_RESOLUTION - 1;
    17e6:	8f ef       	ldi	r24, 0xFF	; 255
    17e8:	9f ef       	ldi	r25, 0xFF	; 255
    17ea:	90 93 2a 05 	sts	0x052A, r25	; 0x80052a <_ZN8TimerOne9pwmPeriodE+0x1>
    17ee:	80 93 29 05 	sts	0x0529, r24	; 0x800529 <_ZN8TimerOne9pwmPeriodE>
	}
	ICR1 = pwmPeriod;
    17f2:	80 91 29 05 	lds	r24, 0x0529	; 0x800529 <_ZN8TimerOne9pwmPeriodE>
    17f6:	90 91 2a 05 	lds	r25, 0x052A	; 0x80052a <_ZN8TimerOne9pwmPeriodE+0x1>
    17fa:	90 93 87 00 	sts	0x0087, r25	; 0x800087 <__TEXT_REGION_LENGTH__+0x7e0087>
    17fe:	80 93 86 00 	sts	0x0086, r24	; 0x800086 <__TEXT_REGION_LENGTH__+0x7e0086>
	TCCR1B = _BV(WGM13) | clockSelectBits;
    1802:	80 91 28 05 	lds	r24, 0x0528	; 0x800528 <_ZN8TimerOne15clockSelectBitsE>
    1806:	80 61       	ori	r24, 0x10	; 16
    1808:	80 93 81 00 	sts	0x0081, r24	; 0x800081 <__TEXT_REGION_LENGTH__+0x7e0081>

    //****************************
    //  Interrupt Function
    //****************************
    void attachInterrupt(void (*isr)()) __attribute__((always_inline)) {
	isrCallback = isr;
    180c:	85 eb       	ldi	r24, 0xB5	; 181
    180e:	97 e0       	ldi	r25, 0x07	; 7
    1810:	90 93 27 05 	sts	0x0527, r25	; 0x800527 <_ZN8TimerOne11isrCallbackE+0x1>
    1814:	80 93 26 05 	sts	0x0526, r24	; 0x800526 <_ZN8TimerOne11isrCallbackE>
	TIMSK1 = _BV(TOIE1);
    1818:	81 e0       	ldi	r24, 0x01	; 1
    181a:	80 93 6f 00 	sts	0x006F, r24	; 0x80006f <__TEXT_REGION_LENGTH__+0x7e006f>
  Timer1.attachInterrupt(doTimer1Int);
  
  setup_pcint();
    181e:	0e 94 0c 0a 	call	0x1418	; 0x1418 <_Z11setup_pcintv>

  adc_setup();
    1822:	0e 94 e1 03 	call	0x7c2	; 0x7c2 <_Z9adc_setupv>
  oled_setup();
    1826:	0e 94 24 0a 	call	0x1448	; 0x1448 <_Z10oled_setupv>
  
  
  
  pinMode (digipot_ss_pin, OUTPUT);
    182a:	61 e0       	ldi	r22, 0x01	; 1
    182c:	89 e0       	ldi	r24, 0x09	; 9
    182e:	0e 94 38 13 	call	0x2670	; 0x2670 <pinMode>
  digitalWrite(digipot_ss_pin, HIGH);
    1832:	61 e0       	ldi	r22, 0x01	; 1
    1834:	89 e0       	ldi	r24, 0x09	; 9
    1836:	0e 94 74 13 	call	0x26e8	; 0x26e8 <digitalWrite>
  pinMode (dds_ss_pin, OUTPUT);
    183a:	61 e0       	ldi	r22, 0x01	; 1
    183c:	8a e0       	ldi	r24, 0x0A	; 10
    183e:	0e 94 38 13 	call	0x2670	; 0x2670 <pinMode>
  digitalWrite(dds_ss_pin, HIGH);
    1842:	61 e0       	ldi	r22, 0x01	; 1
    1844:	8a e0       	ldi	r24, 0x0A	; 10
    1846:	0e 94 74 13 	call	0x26e8	; 0x26e8 <digitalWrite>
  SPI.begin();
    184a:	0e 94 63 1f 	call	0x3ec6	; 0x3ec6 <_ZN8SPIClass5beginEv>
  
  digipot_write_spi(MCP_WRITEPB0, TriUnityLvl, digipot_ss_pin);
    184e:	49 e0       	ldi	r20, 0x09	; 9
    1850:	6f ef       	ldi	r22, 0xFF	; 255
    1852:	70 e0       	ldi	r23, 0x00	; 0
    1854:	81 e1       	ldi	r24, 0x11	; 17
    1856:	90 e0       	ldi	r25, 0x00	; 0
    1858:	0e 94 c4 04 	call	0x988	; 0x988 <_Z17digipot_write_spiiih>
  digipot_write_spi(MCP_WRITEPB0, SquareUnityLvl, digipot_ss_pin);
    185c:	49 e0       	ldi	r20, 0x09	; 9
    185e:	6e e1       	ldi	r22, 0x1E	; 30
    1860:	70 e0       	ldi	r23, 0x00	; 0
    1862:	81 e1       	ldi	r24, 0x11	; 17
    1864:	90 e0       	ldi	r25, 0x00	; 0
    1866:	0e 94 c4 04 	call	0x988	; 0x988 <_Z17digipot_write_spiiih>
  digipot_write_spi(MCP_WRITEPB0, SineUnityLvl, digipot_ss_pin);
    186a:	49 e0       	ldi	r20, 0x09	; 9
    186c:	6f ef       	ldi	r22, 0xFF	; 255
    186e:	70 e0       	ldi	r23, 0x00	; 0
    1870:	81 e1       	ldi	r24, 0x11	; 17
    1872:	90 e0       	ldi	r25, 0x00	; 0
    1874:	0e 94 c4 04 	call	0x988	; 0x988 <_Z17digipot_write_spiiih>

  digipot_write_spi(MCP_WRITEPB1, TriOffsetLvl, digipot_ss_pin);
    1878:	49 e0       	ldi	r20, 0x09	; 9
    187a:	67 e5       	ldi	r22, 0x57	; 87
    187c:	70 e0       	ldi	r23, 0x00	; 0
    187e:	82 e1       	ldi	r24, 0x12	; 18
    1880:	90 e0       	ldi	r25, 0x00	; 0
    1882:	0e 94 c4 04 	call	0x988	; 0x988 <_Z17digipot_write_spiiih>
  digipot_write_spi(MCP_WRITEPB1, SquareOffsetLvl, digipot_ss_pin);
    1886:	49 e0       	ldi	r20, 0x09	; 9
    1888:	6a e0       	ldi	r22, 0x0A	; 10
    188a:	70 e0       	ldi	r23, 0x00	; 0
    188c:	82 e1       	ldi	r24, 0x12	; 18
    188e:	90 e0       	ldi	r25, 0x00	; 0
    1890:	0e 94 c4 04 	call	0x988	; 0x988 <_Z17digipot_write_spiiih>
  digipot_write_spi(MCP_WRITEPB1, SineOffsetLvl, digipot_ss_pin);
    1894:	49 e0       	ldi	r20, 0x09	; 9
    1896:	67 e5       	ldi	r22, 0x57	; 87
    1898:	70 e0       	ldi	r23, 0x00	; 0
    189a:	82 e1       	ldi	r24, 0x12	; 18
    189c:	90 e0       	ldi	r25, 0x00	; 0
    189e:	0c 94 c4 04 	jmp	0x988	; 0x988 <_Z17digipot_write_spiiih>

000018a2 <loop>:
}

void loop() 
{
  oled_draw();
    18a2:	0c 94 02 0b 	jmp	0x1604	; 0x1604 <_Z9oled_drawv>

000018a6 <_GLOBAL__sub_I__Z17printBinaryNIBBLEh>:
// phase presets and current setting
int PHASE0 = 0xC000;
int PHASE90 = 0xC400;
int PHASE180 = 0xC800;
int PHASE270 = 0xCC00;
int current_phase = PHASE0;
    18a6:	80 91 0a 01 	lds	r24, 0x010A	; 0x80010a <PHASE0>
    18aa:	90 91 0b 01 	lds	r25, 0x010B	; 0x80010b <PHASE0+0x1>
    18ae:	90 93 62 04 	sts	0x0462, r25	; 0x800462 <current_phase+0x1>
    18b2:	80 93 61 04 	sts	0x0461, r24	; 0x800461 <current_phase>
#include <Adafruit_SSD1306.h>
#include "dds.h"
#include "pcint.h"

#define OLED_RESET 4
Adafruit_SSD1306 display(OLED_RESET);
    18b6:	64 e0       	ldi	r22, 0x04	; 4
    18b8:	80 ee       	ldi	r24, 0xE0	; 224
    18ba:	93 e0       	ldi	r25, 0x03	; 3
    18bc:	0c 94 16 1d 	jmp	0x3a2c	; 0x3a2c <_ZN16Adafruit_SSD1306C1Ea>

000018c0 <__subsf3>:
    18c0:	50 58       	subi	r21, 0x80	; 128

000018c2 <__addsf3>:
    18c2:	bb 27       	eor	r27, r27
    18c4:	aa 27       	eor	r26, r26
    18c6:	0e 94 78 0c 	call	0x18f0	; 0x18f0 <__addsf3x>
    18ca:	0c 94 c9 0d 	jmp	0x1b92	; 0x1b92 <__fp_round>
    18ce:	0e 94 bb 0d 	call	0x1b76	; 0x1b76 <__fp_pscA>
    18d2:	38 f0       	brcs	.+14     	; 0x18e2 <__addsf3+0x20>
    18d4:	0e 94 c2 0d 	call	0x1b84	; 0x1b84 <__fp_pscB>
    18d8:	20 f0       	brcs	.+8      	; 0x18e2 <__addsf3+0x20>
    18da:	39 f4       	brne	.+14     	; 0x18ea <__addsf3+0x28>
    18dc:	9f 3f       	cpi	r25, 0xFF	; 255
    18de:	19 f4       	brne	.+6      	; 0x18e6 <__addsf3+0x24>
    18e0:	26 f4       	brtc	.+8      	; 0x18ea <__addsf3+0x28>
    18e2:	0c 94 b8 0d 	jmp	0x1b70	; 0x1b70 <__fp_nan>
    18e6:	0e f4       	brtc	.+2      	; 0x18ea <__addsf3+0x28>
    18e8:	e0 95       	com	r30
    18ea:	e7 fb       	bst	r30, 7
    18ec:	0c 94 b2 0d 	jmp	0x1b64	; 0x1b64 <__fp_inf>

000018f0 <__addsf3x>:
    18f0:	e9 2f       	mov	r30, r25
    18f2:	0e 94 da 0d 	call	0x1bb4	; 0x1bb4 <__fp_split3>
    18f6:	58 f3       	brcs	.-42     	; 0x18ce <__addsf3+0xc>
    18f8:	ba 17       	cp	r27, r26
    18fa:	62 07       	cpc	r22, r18
    18fc:	73 07       	cpc	r23, r19
    18fe:	84 07       	cpc	r24, r20
    1900:	95 07       	cpc	r25, r21
    1902:	20 f0       	brcs	.+8      	; 0x190c <__addsf3x+0x1c>
    1904:	79 f4       	brne	.+30     	; 0x1924 <__addsf3x+0x34>
    1906:	a6 f5       	brtc	.+104    	; 0x1970 <__addsf3x+0x80>
    1908:	0c 94 fc 0d 	jmp	0x1bf8	; 0x1bf8 <__fp_zero>
    190c:	0e f4       	brtc	.+2      	; 0x1910 <__addsf3x+0x20>
    190e:	e0 95       	com	r30
    1910:	0b 2e       	mov	r0, r27
    1912:	ba 2f       	mov	r27, r26
    1914:	a0 2d       	mov	r26, r0
    1916:	0b 01       	movw	r0, r22
    1918:	b9 01       	movw	r22, r18
    191a:	90 01       	movw	r18, r0
    191c:	0c 01       	movw	r0, r24
    191e:	ca 01       	movw	r24, r20
    1920:	a0 01       	movw	r20, r0
    1922:	11 24       	eor	r1, r1
    1924:	ff 27       	eor	r31, r31
    1926:	59 1b       	sub	r21, r25
    1928:	99 f0       	breq	.+38     	; 0x1950 <__addsf3x+0x60>
    192a:	59 3f       	cpi	r21, 0xF9	; 249
    192c:	50 f4       	brcc	.+20     	; 0x1942 <__addsf3x+0x52>
    192e:	50 3e       	cpi	r21, 0xE0	; 224
    1930:	68 f1       	brcs	.+90     	; 0x198c <__addsf3x+0x9c>
    1932:	1a 16       	cp	r1, r26
    1934:	f0 40       	sbci	r31, 0x00	; 0
    1936:	a2 2f       	mov	r26, r18
    1938:	23 2f       	mov	r18, r19
    193a:	34 2f       	mov	r19, r20
    193c:	44 27       	eor	r20, r20
    193e:	58 5f       	subi	r21, 0xF8	; 248
    1940:	f3 cf       	rjmp	.-26     	; 0x1928 <__addsf3x+0x38>
    1942:	46 95       	lsr	r20
    1944:	37 95       	ror	r19
    1946:	27 95       	ror	r18
    1948:	a7 95       	ror	r26
    194a:	f0 40       	sbci	r31, 0x00	; 0
    194c:	53 95       	inc	r21
    194e:	c9 f7       	brne	.-14     	; 0x1942 <__addsf3x+0x52>
    1950:	7e f4       	brtc	.+30     	; 0x1970 <__addsf3x+0x80>
    1952:	1f 16       	cp	r1, r31
    1954:	ba 0b       	sbc	r27, r26
    1956:	62 0b       	sbc	r22, r18
    1958:	73 0b       	sbc	r23, r19
    195a:	84 0b       	sbc	r24, r20
    195c:	ba f0       	brmi	.+46     	; 0x198c <__addsf3x+0x9c>
    195e:	91 50       	subi	r25, 0x01	; 1
    1960:	a1 f0       	breq	.+40     	; 0x198a <__addsf3x+0x9a>
    1962:	ff 0f       	add	r31, r31
    1964:	bb 1f       	adc	r27, r27
    1966:	66 1f       	adc	r22, r22
    1968:	77 1f       	adc	r23, r23
    196a:	88 1f       	adc	r24, r24
    196c:	c2 f7       	brpl	.-16     	; 0x195e <__addsf3x+0x6e>
    196e:	0e c0       	rjmp	.+28     	; 0x198c <__addsf3x+0x9c>
    1970:	ba 0f       	add	r27, r26
    1972:	62 1f       	adc	r22, r18
    1974:	73 1f       	adc	r23, r19
    1976:	84 1f       	adc	r24, r20
    1978:	48 f4       	brcc	.+18     	; 0x198c <__addsf3x+0x9c>
    197a:	87 95       	ror	r24
    197c:	77 95       	ror	r23
    197e:	67 95       	ror	r22
    1980:	b7 95       	ror	r27
    1982:	f7 95       	ror	r31
    1984:	9e 3f       	cpi	r25, 0xFE	; 254
    1986:	08 f0       	brcs	.+2      	; 0x198a <__addsf3x+0x9a>
    1988:	b0 cf       	rjmp	.-160    	; 0x18ea <__addsf3+0x28>
    198a:	93 95       	inc	r25
    198c:	88 0f       	add	r24, r24
    198e:	08 f0       	brcs	.+2      	; 0x1992 <__addsf3x+0xa2>
    1990:	99 27       	eor	r25, r25
    1992:	ee 0f       	add	r30, r30
    1994:	97 95       	ror	r25
    1996:	87 95       	ror	r24
    1998:	08 95       	ret

0000199a <__divsf3>:
    199a:	0e 94 e1 0c 	call	0x19c2	; 0x19c2 <__divsf3x>
    199e:	0c 94 c9 0d 	jmp	0x1b92	; 0x1b92 <__fp_round>
    19a2:	0e 94 c2 0d 	call	0x1b84	; 0x1b84 <__fp_pscB>
    19a6:	58 f0       	brcs	.+22     	; 0x19be <__divsf3+0x24>
    19a8:	0e 94 bb 0d 	call	0x1b76	; 0x1b76 <__fp_pscA>
    19ac:	40 f0       	brcs	.+16     	; 0x19be <__divsf3+0x24>
    19ae:	29 f4       	brne	.+10     	; 0x19ba <__divsf3+0x20>
    19b0:	5f 3f       	cpi	r21, 0xFF	; 255
    19b2:	29 f0       	breq	.+10     	; 0x19be <__divsf3+0x24>
    19b4:	0c 94 b2 0d 	jmp	0x1b64	; 0x1b64 <__fp_inf>
    19b8:	51 11       	cpse	r21, r1
    19ba:	0c 94 fd 0d 	jmp	0x1bfa	; 0x1bfa <__fp_szero>
    19be:	0c 94 b8 0d 	jmp	0x1b70	; 0x1b70 <__fp_nan>

000019c2 <__divsf3x>:
    19c2:	0e 94 da 0d 	call	0x1bb4	; 0x1bb4 <__fp_split3>
    19c6:	68 f3       	brcs	.-38     	; 0x19a2 <__divsf3+0x8>

000019c8 <__divsf3_pse>:
    19c8:	99 23       	and	r25, r25
    19ca:	b1 f3       	breq	.-20     	; 0x19b8 <__divsf3+0x1e>
    19cc:	55 23       	and	r21, r21
    19ce:	91 f3       	breq	.-28     	; 0x19b4 <__divsf3+0x1a>
    19d0:	95 1b       	sub	r25, r21
    19d2:	55 0b       	sbc	r21, r21
    19d4:	bb 27       	eor	r27, r27
    19d6:	aa 27       	eor	r26, r26
    19d8:	62 17       	cp	r22, r18
    19da:	73 07       	cpc	r23, r19
    19dc:	84 07       	cpc	r24, r20
    19de:	38 f0       	brcs	.+14     	; 0x19ee <__divsf3_pse+0x26>
    19e0:	9f 5f       	subi	r25, 0xFF	; 255
    19e2:	5f 4f       	sbci	r21, 0xFF	; 255
    19e4:	22 0f       	add	r18, r18
    19e6:	33 1f       	adc	r19, r19
    19e8:	44 1f       	adc	r20, r20
    19ea:	aa 1f       	adc	r26, r26
    19ec:	a9 f3       	breq	.-22     	; 0x19d8 <__divsf3_pse+0x10>
    19ee:	35 d0       	rcall	.+106    	; 0x1a5a <__divsf3_pse+0x92>
    19f0:	0e 2e       	mov	r0, r30
    19f2:	3a f0       	brmi	.+14     	; 0x1a02 <__divsf3_pse+0x3a>
    19f4:	e0 e8       	ldi	r30, 0x80	; 128
    19f6:	32 d0       	rcall	.+100    	; 0x1a5c <__divsf3_pse+0x94>
    19f8:	91 50       	subi	r25, 0x01	; 1
    19fa:	50 40       	sbci	r21, 0x00	; 0
    19fc:	e6 95       	lsr	r30
    19fe:	00 1c       	adc	r0, r0
    1a00:	ca f7       	brpl	.-14     	; 0x19f4 <__divsf3_pse+0x2c>
    1a02:	2b d0       	rcall	.+86     	; 0x1a5a <__divsf3_pse+0x92>
    1a04:	fe 2f       	mov	r31, r30
    1a06:	29 d0       	rcall	.+82     	; 0x1a5a <__divsf3_pse+0x92>
    1a08:	66 0f       	add	r22, r22
    1a0a:	77 1f       	adc	r23, r23
    1a0c:	88 1f       	adc	r24, r24
    1a0e:	bb 1f       	adc	r27, r27
    1a10:	26 17       	cp	r18, r22
    1a12:	37 07       	cpc	r19, r23
    1a14:	48 07       	cpc	r20, r24
    1a16:	ab 07       	cpc	r26, r27
    1a18:	b0 e8       	ldi	r27, 0x80	; 128
    1a1a:	09 f0       	breq	.+2      	; 0x1a1e <__divsf3_pse+0x56>
    1a1c:	bb 0b       	sbc	r27, r27
    1a1e:	80 2d       	mov	r24, r0
    1a20:	bf 01       	movw	r22, r30
    1a22:	ff 27       	eor	r31, r31
    1a24:	93 58       	subi	r25, 0x83	; 131
    1a26:	5f 4f       	sbci	r21, 0xFF	; 255
    1a28:	3a f0       	brmi	.+14     	; 0x1a38 <__divsf3_pse+0x70>
    1a2a:	9e 3f       	cpi	r25, 0xFE	; 254
    1a2c:	51 05       	cpc	r21, r1
    1a2e:	78 f0       	brcs	.+30     	; 0x1a4e <__divsf3_pse+0x86>
    1a30:	0c 94 b2 0d 	jmp	0x1b64	; 0x1b64 <__fp_inf>
    1a34:	0c 94 fd 0d 	jmp	0x1bfa	; 0x1bfa <__fp_szero>
    1a38:	5f 3f       	cpi	r21, 0xFF	; 255
    1a3a:	e4 f3       	brlt	.-8      	; 0x1a34 <__divsf3_pse+0x6c>
    1a3c:	98 3e       	cpi	r25, 0xE8	; 232
    1a3e:	d4 f3       	brlt	.-12     	; 0x1a34 <__divsf3_pse+0x6c>
    1a40:	86 95       	lsr	r24
    1a42:	77 95       	ror	r23
    1a44:	67 95       	ror	r22
    1a46:	b7 95       	ror	r27
    1a48:	f7 95       	ror	r31
    1a4a:	9f 5f       	subi	r25, 0xFF	; 255
    1a4c:	c9 f7       	brne	.-14     	; 0x1a40 <__divsf3_pse+0x78>
    1a4e:	88 0f       	add	r24, r24
    1a50:	91 1d       	adc	r25, r1
    1a52:	96 95       	lsr	r25
    1a54:	87 95       	ror	r24
    1a56:	97 f9       	bld	r25, 7
    1a58:	08 95       	ret
    1a5a:	e1 e0       	ldi	r30, 0x01	; 1
    1a5c:	66 0f       	add	r22, r22
    1a5e:	77 1f       	adc	r23, r23
    1a60:	88 1f       	adc	r24, r24
    1a62:	bb 1f       	adc	r27, r27
    1a64:	62 17       	cp	r22, r18
    1a66:	73 07       	cpc	r23, r19
    1a68:	84 07       	cpc	r24, r20
    1a6a:	ba 07       	cpc	r27, r26
    1a6c:	20 f0       	brcs	.+8      	; 0x1a76 <__divsf3_pse+0xae>
    1a6e:	62 1b       	sub	r22, r18
    1a70:	73 0b       	sbc	r23, r19
    1a72:	84 0b       	sbc	r24, r20
    1a74:	ba 0b       	sbc	r27, r26
    1a76:	ee 1f       	adc	r30, r30
    1a78:	88 f7       	brcc	.-30     	; 0x1a5c <__divsf3_pse+0x94>
    1a7a:	e0 95       	com	r30
    1a7c:	08 95       	ret

00001a7e <__fixsfsi>:
    1a7e:	0e 94 46 0d 	call	0x1a8c	; 0x1a8c <__fixunssfsi>
    1a82:	68 94       	set
    1a84:	b1 11       	cpse	r27, r1
    1a86:	0c 94 fd 0d 	jmp	0x1bfa	; 0x1bfa <__fp_szero>
    1a8a:	08 95       	ret

00001a8c <__fixunssfsi>:
    1a8c:	0e 94 e2 0d 	call	0x1bc4	; 0x1bc4 <__fp_splitA>
    1a90:	88 f0       	brcs	.+34     	; 0x1ab4 <__fixunssfsi+0x28>
    1a92:	9f 57       	subi	r25, 0x7F	; 127
    1a94:	98 f0       	brcs	.+38     	; 0x1abc <__fixunssfsi+0x30>
    1a96:	b9 2f       	mov	r27, r25
    1a98:	99 27       	eor	r25, r25
    1a9a:	b7 51       	subi	r27, 0x17	; 23
    1a9c:	b0 f0       	brcs	.+44     	; 0x1aca <__fixunssfsi+0x3e>
    1a9e:	e1 f0       	breq	.+56     	; 0x1ad8 <__fixunssfsi+0x4c>
    1aa0:	66 0f       	add	r22, r22
    1aa2:	77 1f       	adc	r23, r23
    1aa4:	88 1f       	adc	r24, r24
    1aa6:	99 1f       	adc	r25, r25
    1aa8:	1a f0       	brmi	.+6      	; 0x1ab0 <__fixunssfsi+0x24>
    1aaa:	ba 95       	dec	r27
    1aac:	c9 f7       	brne	.-14     	; 0x1aa0 <__fixunssfsi+0x14>
    1aae:	14 c0       	rjmp	.+40     	; 0x1ad8 <__fixunssfsi+0x4c>
    1ab0:	b1 30       	cpi	r27, 0x01	; 1
    1ab2:	91 f0       	breq	.+36     	; 0x1ad8 <__fixunssfsi+0x4c>
    1ab4:	0e 94 fc 0d 	call	0x1bf8	; 0x1bf8 <__fp_zero>
    1ab8:	b1 e0       	ldi	r27, 0x01	; 1
    1aba:	08 95       	ret
    1abc:	0c 94 fc 0d 	jmp	0x1bf8	; 0x1bf8 <__fp_zero>
    1ac0:	67 2f       	mov	r22, r23
    1ac2:	78 2f       	mov	r23, r24
    1ac4:	88 27       	eor	r24, r24
    1ac6:	b8 5f       	subi	r27, 0xF8	; 248
    1ac8:	39 f0       	breq	.+14     	; 0x1ad8 <__fixunssfsi+0x4c>
    1aca:	b9 3f       	cpi	r27, 0xF9	; 249
    1acc:	cc f3       	brlt	.-14     	; 0x1ac0 <__fixunssfsi+0x34>
    1ace:	86 95       	lsr	r24
    1ad0:	77 95       	ror	r23
    1ad2:	67 95       	ror	r22
    1ad4:	b3 95       	inc	r27
    1ad6:	d9 f7       	brne	.-10     	; 0x1ace <__fixunssfsi+0x42>
    1ad8:	3e f4       	brtc	.+14     	; 0x1ae8 <__fixunssfsi+0x5c>
    1ada:	90 95       	com	r25
    1adc:	80 95       	com	r24
    1ade:	70 95       	com	r23
    1ae0:	61 95       	neg	r22
    1ae2:	7f 4f       	sbci	r23, 0xFF	; 255
    1ae4:	8f 4f       	sbci	r24, 0xFF	; 255
    1ae6:	9f 4f       	sbci	r25, 0xFF	; 255
    1ae8:	08 95       	ret

00001aea <__floatunsisf>:
    1aea:	e8 94       	clt
    1aec:	09 c0       	rjmp	.+18     	; 0x1b00 <__floatsisf+0x12>

00001aee <__floatsisf>:
    1aee:	97 fb       	bst	r25, 7
    1af0:	3e f4       	brtc	.+14     	; 0x1b00 <__floatsisf+0x12>
    1af2:	90 95       	com	r25
    1af4:	80 95       	com	r24
    1af6:	70 95       	com	r23
    1af8:	61 95       	neg	r22
    1afa:	7f 4f       	sbci	r23, 0xFF	; 255
    1afc:	8f 4f       	sbci	r24, 0xFF	; 255
    1afe:	9f 4f       	sbci	r25, 0xFF	; 255
    1b00:	99 23       	and	r25, r25
    1b02:	a9 f0       	breq	.+42     	; 0x1b2e <__floatsisf+0x40>
    1b04:	f9 2f       	mov	r31, r25
    1b06:	96 e9       	ldi	r25, 0x96	; 150
    1b08:	bb 27       	eor	r27, r27
    1b0a:	93 95       	inc	r25
    1b0c:	f6 95       	lsr	r31
    1b0e:	87 95       	ror	r24
    1b10:	77 95       	ror	r23
    1b12:	67 95       	ror	r22
    1b14:	b7 95       	ror	r27
    1b16:	f1 11       	cpse	r31, r1
    1b18:	f8 cf       	rjmp	.-16     	; 0x1b0a <__floatsisf+0x1c>
    1b1a:	fa f4       	brpl	.+62     	; 0x1b5a <__floatsisf+0x6c>
    1b1c:	bb 0f       	add	r27, r27
    1b1e:	11 f4       	brne	.+4      	; 0x1b24 <__floatsisf+0x36>
    1b20:	60 ff       	sbrs	r22, 0
    1b22:	1b c0       	rjmp	.+54     	; 0x1b5a <__floatsisf+0x6c>
    1b24:	6f 5f       	subi	r22, 0xFF	; 255
    1b26:	7f 4f       	sbci	r23, 0xFF	; 255
    1b28:	8f 4f       	sbci	r24, 0xFF	; 255
    1b2a:	9f 4f       	sbci	r25, 0xFF	; 255
    1b2c:	16 c0       	rjmp	.+44     	; 0x1b5a <__floatsisf+0x6c>
    1b2e:	88 23       	and	r24, r24
    1b30:	11 f0       	breq	.+4      	; 0x1b36 <__floatsisf+0x48>
    1b32:	96 e9       	ldi	r25, 0x96	; 150
    1b34:	11 c0       	rjmp	.+34     	; 0x1b58 <__floatsisf+0x6a>
    1b36:	77 23       	and	r23, r23
    1b38:	21 f0       	breq	.+8      	; 0x1b42 <__floatsisf+0x54>
    1b3a:	9e e8       	ldi	r25, 0x8E	; 142
    1b3c:	87 2f       	mov	r24, r23
    1b3e:	76 2f       	mov	r23, r22
    1b40:	05 c0       	rjmp	.+10     	; 0x1b4c <__floatsisf+0x5e>
    1b42:	66 23       	and	r22, r22
    1b44:	71 f0       	breq	.+28     	; 0x1b62 <__floatsisf+0x74>
    1b46:	96 e8       	ldi	r25, 0x86	; 134
    1b48:	86 2f       	mov	r24, r22
    1b4a:	70 e0       	ldi	r23, 0x00	; 0
    1b4c:	60 e0       	ldi	r22, 0x00	; 0
    1b4e:	2a f0       	brmi	.+10     	; 0x1b5a <__floatsisf+0x6c>
    1b50:	9a 95       	dec	r25
    1b52:	66 0f       	add	r22, r22
    1b54:	77 1f       	adc	r23, r23
    1b56:	88 1f       	adc	r24, r24
    1b58:	da f7       	brpl	.-10     	; 0x1b50 <__floatsisf+0x62>
    1b5a:	88 0f       	add	r24, r24
    1b5c:	96 95       	lsr	r25
    1b5e:	87 95       	ror	r24
    1b60:	97 f9       	bld	r25, 7
    1b62:	08 95       	ret

00001b64 <__fp_inf>:
    1b64:	97 f9       	bld	r25, 7
    1b66:	9f 67       	ori	r25, 0x7F	; 127
    1b68:	80 e8       	ldi	r24, 0x80	; 128
    1b6a:	70 e0       	ldi	r23, 0x00	; 0
    1b6c:	60 e0       	ldi	r22, 0x00	; 0
    1b6e:	08 95       	ret

00001b70 <__fp_nan>:
    1b70:	9f ef       	ldi	r25, 0xFF	; 255
    1b72:	80 ec       	ldi	r24, 0xC0	; 192
    1b74:	08 95       	ret

00001b76 <__fp_pscA>:
    1b76:	00 24       	eor	r0, r0
    1b78:	0a 94       	dec	r0
    1b7a:	16 16       	cp	r1, r22
    1b7c:	17 06       	cpc	r1, r23
    1b7e:	18 06       	cpc	r1, r24
    1b80:	09 06       	cpc	r0, r25
    1b82:	08 95       	ret

00001b84 <__fp_pscB>:
    1b84:	00 24       	eor	r0, r0
    1b86:	0a 94       	dec	r0
    1b88:	12 16       	cp	r1, r18
    1b8a:	13 06       	cpc	r1, r19
    1b8c:	14 06       	cpc	r1, r20
    1b8e:	05 06       	cpc	r0, r21
    1b90:	08 95       	ret

00001b92 <__fp_round>:
    1b92:	09 2e       	mov	r0, r25
    1b94:	03 94       	inc	r0
    1b96:	00 0c       	add	r0, r0
    1b98:	11 f4       	brne	.+4      	; 0x1b9e <__fp_round+0xc>
    1b9a:	88 23       	and	r24, r24
    1b9c:	52 f0       	brmi	.+20     	; 0x1bb2 <__fp_round+0x20>
    1b9e:	bb 0f       	add	r27, r27
    1ba0:	40 f4       	brcc	.+16     	; 0x1bb2 <__fp_round+0x20>
    1ba2:	bf 2b       	or	r27, r31
    1ba4:	11 f4       	brne	.+4      	; 0x1baa <__fp_round+0x18>
    1ba6:	60 ff       	sbrs	r22, 0
    1ba8:	04 c0       	rjmp	.+8      	; 0x1bb2 <__fp_round+0x20>
    1baa:	6f 5f       	subi	r22, 0xFF	; 255
    1bac:	7f 4f       	sbci	r23, 0xFF	; 255
    1bae:	8f 4f       	sbci	r24, 0xFF	; 255
    1bb0:	9f 4f       	sbci	r25, 0xFF	; 255
    1bb2:	08 95       	ret

00001bb4 <__fp_split3>:
    1bb4:	57 fd       	sbrc	r21, 7
    1bb6:	90 58       	subi	r25, 0x80	; 128
    1bb8:	44 0f       	add	r20, r20
    1bba:	55 1f       	adc	r21, r21
    1bbc:	59 f0       	breq	.+22     	; 0x1bd4 <__fp_splitA+0x10>
    1bbe:	5f 3f       	cpi	r21, 0xFF	; 255
    1bc0:	71 f0       	breq	.+28     	; 0x1bde <__fp_splitA+0x1a>
    1bc2:	47 95       	ror	r20

00001bc4 <__fp_splitA>:
    1bc4:	88 0f       	add	r24, r24
    1bc6:	97 fb       	bst	r25, 7
    1bc8:	99 1f       	adc	r25, r25
    1bca:	61 f0       	breq	.+24     	; 0x1be4 <__fp_splitA+0x20>
    1bcc:	9f 3f       	cpi	r25, 0xFF	; 255
    1bce:	79 f0       	breq	.+30     	; 0x1bee <__fp_splitA+0x2a>
    1bd0:	87 95       	ror	r24
    1bd2:	08 95       	ret
    1bd4:	12 16       	cp	r1, r18
    1bd6:	13 06       	cpc	r1, r19
    1bd8:	14 06       	cpc	r1, r20
    1bda:	55 1f       	adc	r21, r21
    1bdc:	f2 cf       	rjmp	.-28     	; 0x1bc2 <__fp_split3+0xe>
    1bde:	46 95       	lsr	r20
    1be0:	f1 df       	rcall	.-30     	; 0x1bc4 <__fp_splitA>
    1be2:	08 c0       	rjmp	.+16     	; 0x1bf4 <__fp_splitA+0x30>
    1be4:	16 16       	cp	r1, r22
    1be6:	17 06       	cpc	r1, r23
    1be8:	18 06       	cpc	r1, r24
    1bea:	99 1f       	adc	r25, r25
    1bec:	f1 cf       	rjmp	.-30     	; 0x1bd0 <__fp_splitA+0xc>
    1bee:	86 95       	lsr	r24
    1bf0:	71 05       	cpc	r23, r1
    1bf2:	61 05       	cpc	r22, r1
    1bf4:	08 94       	sec
    1bf6:	08 95       	ret

00001bf8 <__fp_zero>:
    1bf8:	e8 94       	clt

00001bfa <__fp_szero>:
    1bfa:	bb 27       	eor	r27, r27
    1bfc:	66 27       	eor	r22, r22
    1bfe:	77 27       	eor	r23, r23
    1c00:	cb 01       	movw	r24, r22
    1c02:	97 f9       	bld	r25, 7
    1c04:	08 95       	ret

00001c06 <__mulsf3>:
    1c06:	0e 94 16 0e 	call	0x1c2c	; 0x1c2c <__mulsf3x>
    1c0a:	0c 94 c9 0d 	jmp	0x1b92	; 0x1b92 <__fp_round>
    1c0e:	0e 94 bb 0d 	call	0x1b76	; 0x1b76 <__fp_pscA>
    1c12:	38 f0       	brcs	.+14     	; 0x1c22 <__mulsf3+0x1c>
    1c14:	0e 94 c2 0d 	call	0x1b84	; 0x1b84 <__fp_pscB>
    1c18:	20 f0       	brcs	.+8      	; 0x1c22 <__mulsf3+0x1c>
    1c1a:	95 23       	and	r25, r21
    1c1c:	11 f0       	breq	.+4      	; 0x1c22 <__mulsf3+0x1c>
    1c1e:	0c 94 b2 0d 	jmp	0x1b64	; 0x1b64 <__fp_inf>
    1c22:	0c 94 b8 0d 	jmp	0x1b70	; 0x1b70 <__fp_nan>
    1c26:	11 24       	eor	r1, r1
    1c28:	0c 94 fd 0d 	jmp	0x1bfa	; 0x1bfa <__fp_szero>

00001c2c <__mulsf3x>:
    1c2c:	0e 94 da 0d 	call	0x1bb4	; 0x1bb4 <__fp_split3>
    1c30:	70 f3       	brcs	.-36     	; 0x1c0e <__mulsf3+0x8>

00001c32 <__mulsf3_pse>:
    1c32:	95 9f       	mul	r25, r21
    1c34:	c1 f3       	breq	.-16     	; 0x1c26 <__mulsf3+0x20>
    1c36:	95 0f       	add	r25, r21
    1c38:	50 e0       	ldi	r21, 0x00	; 0
    1c3a:	55 1f       	adc	r21, r21
    1c3c:	62 9f       	mul	r22, r18
    1c3e:	f0 01       	movw	r30, r0
    1c40:	72 9f       	mul	r23, r18
    1c42:	bb 27       	eor	r27, r27
    1c44:	f0 0d       	add	r31, r0
    1c46:	b1 1d       	adc	r27, r1
    1c48:	63 9f       	mul	r22, r19
    1c4a:	aa 27       	eor	r26, r26
    1c4c:	f0 0d       	add	r31, r0
    1c4e:	b1 1d       	adc	r27, r1
    1c50:	aa 1f       	adc	r26, r26
    1c52:	64 9f       	mul	r22, r20
    1c54:	66 27       	eor	r22, r22
    1c56:	b0 0d       	add	r27, r0
    1c58:	a1 1d       	adc	r26, r1
    1c5a:	66 1f       	adc	r22, r22
    1c5c:	82 9f       	mul	r24, r18
    1c5e:	22 27       	eor	r18, r18
    1c60:	b0 0d       	add	r27, r0
    1c62:	a1 1d       	adc	r26, r1
    1c64:	62 1f       	adc	r22, r18
    1c66:	73 9f       	mul	r23, r19
    1c68:	b0 0d       	add	r27, r0
    1c6a:	a1 1d       	adc	r26, r1
    1c6c:	62 1f       	adc	r22, r18
    1c6e:	83 9f       	mul	r24, r19
    1c70:	a0 0d       	add	r26, r0
    1c72:	61 1d       	adc	r22, r1
    1c74:	22 1f       	adc	r18, r18
    1c76:	74 9f       	mul	r23, r20
    1c78:	33 27       	eor	r19, r19
    1c7a:	a0 0d       	add	r26, r0
    1c7c:	61 1d       	adc	r22, r1
    1c7e:	23 1f       	adc	r18, r19
    1c80:	84 9f       	mul	r24, r20
    1c82:	60 0d       	add	r22, r0
    1c84:	21 1d       	adc	r18, r1
    1c86:	82 2f       	mov	r24, r18
    1c88:	76 2f       	mov	r23, r22
    1c8a:	6a 2f       	mov	r22, r26
    1c8c:	11 24       	eor	r1, r1
    1c8e:	9f 57       	subi	r25, 0x7F	; 127
    1c90:	50 40       	sbci	r21, 0x00	; 0
    1c92:	9a f0       	brmi	.+38     	; 0x1cba <__mulsf3_pse+0x88>
    1c94:	f1 f0       	breq	.+60     	; 0x1cd2 <__mulsf3_pse+0xa0>
    1c96:	88 23       	and	r24, r24
    1c98:	4a f0       	brmi	.+18     	; 0x1cac <__mulsf3_pse+0x7a>
    1c9a:	ee 0f       	add	r30, r30
    1c9c:	ff 1f       	adc	r31, r31
    1c9e:	bb 1f       	adc	r27, r27
    1ca0:	66 1f       	adc	r22, r22
    1ca2:	77 1f       	adc	r23, r23
    1ca4:	88 1f       	adc	r24, r24
    1ca6:	91 50       	subi	r25, 0x01	; 1
    1ca8:	50 40       	sbci	r21, 0x00	; 0
    1caa:	a9 f7       	brne	.-22     	; 0x1c96 <__mulsf3_pse+0x64>
    1cac:	9e 3f       	cpi	r25, 0xFE	; 254
    1cae:	51 05       	cpc	r21, r1
    1cb0:	80 f0       	brcs	.+32     	; 0x1cd2 <__mulsf3_pse+0xa0>
    1cb2:	0c 94 b2 0d 	jmp	0x1b64	; 0x1b64 <__fp_inf>
    1cb6:	0c 94 fd 0d 	jmp	0x1bfa	; 0x1bfa <__fp_szero>
    1cba:	5f 3f       	cpi	r21, 0xFF	; 255
    1cbc:	e4 f3       	brlt	.-8      	; 0x1cb6 <__mulsf3_pse+0x84>
    1cbe:	98 3e       	cpi	r25, 0xE8	; 232
    1cc0:	d4 f3       	brlt	.-12     	; 0x1cb6 <__mulsf3_pse+0x84>
    1cc2:	86 95       	lsr	r24
    1cc4:	77 95       	ror	r23
    1cc6:	67 95       	ror	r22
    1cc8:	b7 95       	ror	r27
    1cca:	f7 95       	ror	r31
    1ccc:	e7 95       	ror	r30
    1cce:	9f 5f       	subi	r25, 0xFF	; 255
    1cd0:	c1 f7       	brne	.-16     	; 0x1cc2 <__mulsf3_pse+0x90>
    1cd2:	fe 2b       	or	r31, r30
    1cd4:	88 0f       	add	r24, r24
    1cd6:	91 1d       	adc	r25, r1
    1cd8:	96 95       	lsr	r25
    1cda:	87 95       	ror	r24
    1cdc:	97 f9       	bld	r25, 7
    1cde:	08 95       	ret

00001ce0 <_ZN14HardwareSerial9availableEv>:
    1ce0:	fc 01       	movw	r30, r24
    1ce2:	91 8d       	ldd	r25, Z+25	; 0x19
    1ce4:	22 8d       	ldd	r18, Z+26	; 0x1a
    1ce6:	89 2f       	mov	r24, r25
    1ce8:	90 e0       	ldi	r25, 0x00	; 0
    1cea:	80 5c       	subi	r24, 0xC0	; 192
    1cec:	9f 4f       	sbci	r25, 0xFF	; 255
    1cee:	82 1b       	sub	r24, r18
    1cf0:	91 09       	sbc	r25, r1
    1cf2:	8f 73       	andi	r24, 0x3F	; 63
    1cf4:	99 27       	eor	r25, r25
    1cf6:	08 95       	ret

00001cf8 <_ZN14HardwareSerial4peekEv>:
    1cf8:	fc 01       	movw	r30, r24
    1cfa:	91 8d       	ldd	r25, Z+25	; 0x19
    1cfc:	82 8d       	ldd	r24, Z+26	; 0x1a
    1cfe:	98 17       	cp	r25, r24
    1d00:	31 f0       	breq	.+12     	; 0x1d0e <_ZN14HardwareSerial4peekEv+0x16>
    1d02:	82 8d       	ldd	r24, Z+26	; 0x1a
    1d04:	e8 0f       	add	r30, r24
    1d06:	f1 1d       	adc	r31, r1
    1d08:	85 8d       	ldd	r24, Z+29	; 0x1d
    1d0a:	90 e0       	ldi	r25, 0x00	; 0
    1d0c:	08 95       	ret
    1d0e:	8f ef       	ldi	r24, 0xFF	; 255
    1d10:	9f ef       	ldi	r25, 0xFF	; 255
    1d12:	08 95       	ret

00001d14 <_ZN14HardwareSerial4readEv>:
    1d14:	fc 01       	movw	r30, r24
    1d16:	91 8d       	ldd	r25, Z+25	; 0x19
    1d18:	82 8d       	ldd	r24, Z+26	; 0x1a
    1d1a:	98 17       	cp	r25, r24
    1d1c:	61 f0       	breq	.+24     	; 0x1d36 <_ZN14HardwareSerial4readEv+0x22>
    1d1e:	82 8d       	ldd	r24, Z+26	; 0x1a
    1d20:	df 01       	movw	r26, r30
    1d22:	a8 0f       	add	r26, r24
    1d24:	b1 1d       	adc	r27, r1
    1d26:	5d 96       	adiw	r26, 0x1d	; 29
    1d28:	8c 91       	ld	r24, X
    1d2a:	92 8d       	ldd	r25, Z+26	; 0x1a
    1d2c:	9f 5f       	subi	r25, 0xFF	; 255
    1d2e:	9f 73       	andi	r25, 0x3F	; 63
    1d30:	92 8f       	std	Z+26, r25	; 0x1a
    1d32:	90 e0       	ldi	r25, 0x00	; 0
    1d34:	08 95       	ret
    1d36:	8f ef       	ldi	r24, 0xFF	; 255
    1d38:	9f ef       	ldi	r25, 0xFF	; 255
    1d3a:	08 95       	ret

00001d3c <_ZN14HardwareSerial17availableForWriteEv>:
    1d3c:	fc 01       	movw	r30, r24
    1d3e:	53 8d       	ldd	r21, Z+27	; 0x1b
    1d40:	44 8d       	ldd	r20, Z+28	; 0x1c
    1d42:	25 2f       	mov	r18, r21
    1d44:	30 e0       	ldi	r19, 0x00	; 0
    1d46:	84 2f       	mov	r24, r20
    1d48:	90 e0       	ldi	r25, 0x00	; 0
    1d4a:	82 1b       	sub	r24, r18
    1d4c:	93 0b       	sbc	r25, r19
    1d4e:	54 17       	cp	r21, r20
    1d50:	10 f0       	brcs	.+4      	; 0x1d56 <_ZN14HardwareSerial17availableForWriteEv+0x1a>
    1d52:	cf 96       	adiw	r24, 0x3f	; 63
    1d54:	08 95       	ret
    1d56:	01 97       	sbiw	r24, 0x01	; 1
    1d58:	08 95       	ret

00001d5a <_Z14serialEventRunv>:
    1d5a:	86 e0       	ldi	r24, 0x06	; 6
    1d5c:	90 e1       	ldi	r25, 0x10	; 16
    1d5e:	89 2b       	or	r24, r25
    1d60:	49 f0       	breq	.+18     	; 0x1d74 <_Z14serialEventRunv+0x1a>
    1d62:	80 e0       	ldi	r24, 0x00	; 0
    1d64:	90 e0       	ldi	r25, 0x00	; 0
    1d66:	89 2b       	or	r24, r25
    1d68:	29 f0       	breq	.+10     	; 0x1d74 <_Z14serialEventRunv+0x1a>
    1d6a:	0e 94 06 10 	call	0x200c	; 0x200c <_Z17Serial0_availablev>
    1d6e:	81 11       	cpse	r24, r1
    1d70:	0c 94 00 00 	jmp	0	; 0x0 <__vectors>
    1d74:	08 95       	ret

00001d76 <_ZN14HardwareSerial17_tx_udr_empty_irqEv>:
    1d76:	fc 01       	movw	r30, r24
    1d78:	84 8d       	ldd	r24, Z+28	; 0x1c
    1d7a:	df 01       	movw	r26, r30
    1d7c:	a8 0f       	add	r26, r24
    1d7e:	b1 1d       	adc	r27, r1
    1d80:	a3 5a       	subi	r26, 0xA3	; 163
    1d82:	bf 4f       	sbci	r27, 0xFF	; 255
    1d84:	2c 91       	ld	r18, X
    1d86:	84 8d       	ldd	r24, Z+28	; 0x1c
    1d88:	90 e0       	ldi	r25, 0x00	; 0
    1d8a:	01 96       	adiw	r24, 0x01	; 1
    1d8c:	8f 73       	andi	r24, 0x3F	; 63
    1d8e:	99 27       	eor	r25, r25
    1d90:	84 8f       	std	Z+28, r24	; 0x1c
    1d92:	a6 89       	ldd	r26, Z+22	; 0x16
    1d94:	b7 89       	ldd	r27, Z+23	; 0x17
    1d96:	2c 93       	st	X, r18
    1d98:	a0 89       	ldd	r26, Z+16	; 0x10
    1d9a:	b1 89       	ldd	r27, Z+17	; 0x11
    1d9c:	8c 91       	ld	r24, X
    1d9e:	80 64       	ori	r24, 0x40	; 64
    1da0:	8c 93       	st	X, r24
    1da2:	93 8d       	ldd	r25, Z+27	; 0x1b
    1da4:	84 8d       	ldd	r24, Z+28	; 0x1c
    1da6:	98 13       	cpse	r25, r24
    1da8:	06 c0       	rjmp	.+12     	; 0x1db6 <_ZN14HardwareSerial17_tx_udr_empty_irqEv+0x40>
    1daa:	02 88       	ldd	r0, Z+18	; 0x12
    1dac:	f3 89       	ldd	r31, Z+19	; 0x13
    1dae:	e0 2d       	mov	r30, r0
    1db0:	80 81       	ld	r24, Z
    1db2:	8f 7d       	andi	r24, 0xDF	; 223
    1db4:	80 83       	st	Z, r24
    1db6:	08 95       	ret

00001db8 <_ZN14HardwareSerial5writeEh>:
    1db8:	ef 92       	push	r14
    1dba:	ff 92       	push	r15
    1dbc:	0f 93       	push	r16
    1dbe:	1f 93       	push	r17
    1dc0:	cf 93       	push	r28
    1dc2:	df 93       	push	r29
    1dc4:	ec 01       	movw	r28, r24
    1dc6:	81 e0       	ldi	r24, 0x01	; 1
    1dc8:	88 8f       	std	Y+24, r24	; 0x18
    1dca:	9b 8d       	ldd	r25, Y+27	; 0x1b
    1dcc:	8c 8d       	ldd	r24, Y+28	; 0x1c
    1dce:	98 13       	cpse	r25, r24
    1dd0:	05 c0       	rjmp	.+10     	; 0x1ddc <_ZN14HardwareSerial5writeEh+0x24>
    1dd2:	e8 89       	ldd	r30, Y+16	; 0x10
    1dd4:	f9 89       	ldd	r31, Y+17	; 0x11
    1dd6:	80 81       	ld	r24, Z
    1dd8:	85 fd       	sbrc	r24, 5
    1dda:	24 c0       	rjmp	.+72     	; 0x1e24 <_ZN14HardwareSerial5writeEh+0x6c>
    1ddc:	f6 2e       	mov	r15, r22
    1dde:	0b 8d       	ldd	r16, Y+27	; 0x1b
    1de0:	10 e0       	ldi	r17, 0x00	; 0
    1de2:	0f 5f       	subi	r16, 0xFF	; 255
    1de4:	1f 4f       	sbci	r17, 0xFF	; 255
    1de6:	0f 73       	andi	r16, 0x3F	; 63
    1de8:	11 27       	eor	r17, r17
    1dea:	e0 2e       	mov	r14, r16
    1dec:	8c 8d       	ldd	r24, Y+28	; 0x1c
    1dee:	e8 12       	cpse	r14, r24
    1df0:	0c c0       	rjmp	.+24     	; 0x1e0a <_ZN14HardwareSerial5writeEh+0x52>
    1df2:	0f b6       	in	r0, 0x3f	; 63
    1df4:	07 fc       	sbrc	r0, 7
    1df6:	fa cf       	rjmp	.-12     	; 0x1dec <_ZN14HardwareSerial5writeEh+0x34>
    1df8:	e8 89       	ldd	r30, Y+16	; 0x10
    1dfa:	f9 89       	ldd	r31, Y+17	; 0x11
    1dfc:	80 81       	ld	r24, Z
    1dfe:	85 ff       	sbrs	r24, 5
    1e00:	f5 cf       	rjmp	.-22     	; 0x1dec <_ZN14HardwareSerial5writeEh+0x34>
    1e02:	ce 01       	movw	r24, r28
    1e04:	0e 94 bb 0e 	call	0x1d76	; 0x1d76 <_ZN14HardwareSerial17_tx_udr_empty_irqEv>
    1e08:	f1 cf       	rjmp	.-30     	; 0x1dec <_ZN14HardwareSerial5writeEh+0x34>
    1e0a:	8b 8d       	ldd	r24, Y+27	; 0x1b
    1e0c:	fe 01       	movw	r30, r28
    1e0e:	e8 0f       	add	r30, r24
    1e10:	f1 1d       	adc	r31, r1
    1e12:	e3 5a       	subi	r30, 0xA3	; 163
    1e14:	ff 4f       	sbci	r31, 0xFF	; 255
    1e16:	f0 82       	st	Z, r15
    1e18:	0b 8f       	std	Y+27, r16	; 0x1b
    1e1a:	ea 89       	ldd	r30, Y+18	; 0x12
    1e1c:	fb 89       	ldd	r31, Y+19	; 0x13
    1e1e:	80 81       	ld	r24, Z
    1e20:	80 62       	ori	r24, 0x20	; 32
    1e22:	07 c0       	rjmp	.+14     	; 0x1e32 <_ZN14HardwareSerial5writeEh+0x7a>
    1e24:	ee 89       	ldd	r30, Y+22	; 0x16
    1e26:	ff 89       	ldd	r31, Y+23	; 0x17
    1e28:	60 83       	st	Z, r22
    1e2a:	e8 89       	ldd	r30, Y+16	; 0x10
    1e2c:	f9 89       	ldd	r31, Y+17	; 0x11
    1e2e:	80 81       	ld	r24, Z
    1e30:	80 64       	ori	r24, 0x40	; 64
    1e32:	80 83       	st	Z, r24
    1e34:	81 e0       	ldi	r24, 0x01	; 1
    1e36:	90 e0       	ldi	r25, 0x00	; 0
    1e38:	df 91       	pop	r29
    1e3a:	cf 91       	pop	r28
    1e3c:	1f 91       	pop	r17
    1e3e:	0f 91       	pop	r16
    1e40:	ff 90       	pop	r15
    1e42:	ef 90       	pop	r14
    1e44:	08 95       	ret

00001e46 <_ZN14HardwareSerial5flushEv>:
    1e46:	cf 93       	push	r28
    1e48:	df 93       	push	r29
    1e4a:	ec 01       	movw	r28, r24
    1e4c:	88 8d       	ldd	r24, Y+24	; 0x18
    1e4e:	88 23       	and	r24, r24
    1e50:	c9 f0       	breq	.+50     	; 0x1e84 <_ZN14HardwareSerial5flushEv+0x3e>
    1e52:	ea 89       	ldd	r30, Y+18	; 0x12
    1e54:	fb 89       	ldd	r31, Y+19	; 0x13
    1e56:	80 81       	ld	r24, Z
    1e58:	85 fd       	sbrc	r24, 5
    1e5a:	05 c0       	rjmp	.+10     	; 0x1e66 <_ZN14HardwareSerial5flushEv+0x20>
    1e5c:	a8 89       	ldd	r26, Y+16	; 0x10
    1e5e:	b9 89       	ldd	r27, Y+17	; 0x11
    1e60:	8c 91       	ld	r24, X
    1e62:	86 fd       	sbrc	r24, 6
    1e64:	0f c0       	rjmp	.+30     	; 0x1e84 <_ZN14HardwareSerial5flushEv+0x3e>
    1e66:	0f b6       	in	r0, 0x3f	; 63
    1e68:	07 fc       	sbrc	r0, 7
    1e6a:	f5 cf       	rjmp	.-22     	; 0x1e56 <_ZN14HardwareSerial5flushEv+0x10>
    1e6c:	80 81       	ld	r24, Z
    1e6e:	85 ff       	sbrs	r24, 5
    1e70:	f2 cf       	rjmp	.-28     	; 0x1e56 <_ZN14HardwareSerial5flushEv+0x10>
    1e72:	a8 89       	ldd	r26, Y+16	; 0x10
    1e74:	b9 89       	ldd	r27, Y+17	; 0x11
    1e76:	8c 91       	ld	r24, X
    1e78:	85 ff       	sbrs	r24, 5
    1e7a:	ed cf       	rjmp	.-38     	; 0x1e56 <_ZN14HardwareSerial5flushEv+0x10>
    1e7c:	ce 01       	movw	r24, r28
    1e7e:	0e 94 bb 0e 	call	0x1d76	; 0x1d76 <_ZN14HardwareSerial17_tx_udr_empty_irqEv>
    1e82:	e7 cf       	rjmp	.-50     	; 0x1e52 <_ZN14HardwareSerial5flushEv+0xc>
    1e84:	df 91       	pop	r29
    1e86:	cf 91       	pop	r28
    1e88:	08 95       	ret

00001e8a <_ZN14HardwareSerial5beginEmh>:
    1e8a:	cf 92       	push	r12
    1e8c:	df 92       	push	r13
    1e8e:	ef 92       	push	r14
    1e90:	ff 92       	push	r15
    1e92:	1f 93       	push	r17
    1e94:	cf 93       	push	r28
    1e96:	df 93       	push	r29
    1e98:	ec 01       	movw	r28, r24
    1e9a:	6a 01       	movw	r12, r20
    1e9c:	7b 01       	movw	r14, r22
    1e9e:	12 2f       	mov	r17, r18
    1ea0:	e8 89       	ldd	r30, Y+16	; 0x10
    1ea2:	f9 89       	ldd	r31, Y+17	; 0x11
    1ea4:	82 e0       	ldi	r24, 0x02	; 2
    1ea6:	80 83       	st	Z, r24
    1ea8:	41 15       	cp	r20, r1
    1eaa:	51 4e       	sbci	r21, 0xE1	; 225
    1eac:	61 05       	cpc	r22, r1
    1eae:	71 05       	cpc	r23, r1
    1eb0:	b1 f0       	breq	.+44     	; 0x1ede <_ZN14HardwareSerial5beginEmh+0x54>
    1eb2:	60 e0       	ldi	r22, 0x00	; 0
    1eb4:	79 e0       	ldi	r23, 0x09	; 9
    1eb6:	8d e3       	ldi	r24, 0x3D	; 61
    1eb8:	90 e0       	ldi	r25, 0x00	; 0
    1eba:	a7 01       	movw	r20, r14
    1ebc:	96 01       	movw	r18, r12
    1ebe:	0e 94 a7 22 	call	0x454e	; 0x454e <__udivmodsi4>
    1ec2:	da 01       	movw	r26, r20
    1ec4:	c9 01       	movw	r24, r18
    1ec6:	01 97       	sbiw	r24, 0x01	; 1
    1ec8:	a1 09       	sbc	r26, r1
    1eca:	b1 09       	sbc	r27, r1
    1ecc:	b6 95       	lsr	r27
    1ece:	a7 95       	ror	r26
    1ed0:	97 95       	ror	r25
    1ed2:	87 95       	ror	r24
    1ed4:	9c 01       	movw	r18, r24
    1ed6:	21 15       	cp	r18, r1
    1ed8:	80 e1       	ldi	r24, 0x10	; 16
    1eda:	38 07       	cpc	r19, r24
    1edc:	a8 f0       	brcs	.+42     	; 0x1f08 <_ZN14HardwareSerial5beginEmh+0x7e>
    1ede:	e8 89       	ldd	r30, Y+16	; 0x10
    1ee0:	f9 89       	ldd	r31, Y+17	; 0x11
    1ee2:	10 82       	st	Z, r1
    1ee4:	60 e8       	ldi	r22, 0x80	; 128
    1ee6:	74 e8       	ldi	r23, 0x84	; 132
    1ee8:	8e e1       	ldi	r24, 0x1E	; 30
    1eea:	90 e0       	ldi	r25, 0x00	; 0
    1eec:	a7 01       	movw	r20, r14
    1eee:	96 01       	movw	r18, r12
    1ef0:	0e 94 a7 22 	call	0x454e	; 0x454e <__udivmodsi4>
    1ef4:	da 01       	movw	r26, r20
    1ef6:	c9 01       	movw	r24, r18
    1ef8:	01 97       	sbiw	r24, 0x01	; 1
    1efa:	a1 09       	sbc	r26, r1
    1efc:	b1 09       	sbc	r27, r1
    1efe:	b6 95       	lsr	r27
    1f00:	a7 95       	ror	r26
    1f02:	97 95       	ror	r25
    1f04:	87 95       	ror	r24
    1f06:	9c 01       	movw	r18, r24
    1f08:	ec 85       	ldd	r30, Y+12	; 0x0c
    1f0a:	fd 85       	ldd	r31, Y+13	; 0x0d
    1f0c:	30 83       	st	Z, r19
    1f0e:	ee 85       	ldd	r30, Y+14	; 0x0e
    1f10:	ff 85       	ldd	r31, Y+15	; 0x0f
    1f12:	20 83       	st	Z, r18
    1f14:	18 8e       	std	Y+24, r1	; 0x18
    1f16:	ec 89       	ldd	r30, Y+20	; 0x14
    1f18:	fd 89       	ldd	r31, Y+21	; 0x15
    1f1a:	10 83       	st	Z, r17
    1f1c:	ea 89       	ldd	r30, Y+18	; 0x12
    1f1e:	fb 89       	ldd	r31, Y+19	; 0x13
    1f20:	80 81       	ld	r24, Z
    1f22:	80 61       	ori	r24, 0x10	; 16
    1f24:	80 83       	st	Z, r24
    1f26:	ea 89       	ldd	r30, Y+18	; 0x12
    1f28:	fb 89       	ldd	r31, Y+19	; 0x13
    1f2a:	80 81       	ld	r24, Z
    1f2c:	88 60       	ori	r24, 0x08	; 8
    1f2e:	80 83       	st	Z, r24
    1f30:	ea 89       	ldd	r30, Y+18	; 0x12
    1f32:	fb 89       	ldd	r31, Y+19	; 0x13
    1f34:	80 81       	ld	r24, Z
    1f36:	80 68       	ori	r24, 0x80	; 128
    1f38:	80 83       	st	Z, r24
    1f3a:	ea 89       	ldd	r30, Y+18	; 0x12
    1f3c:	fb 89       	ldd	r31, Y+19	; 0x13
    1f3e:	80 81       	ld	r24, Z
    1f40:	8f 7d       	andi	r24, 0xDF	; 223
    1f42:	80 83       	st	Z, r24
    1f44:	df 91       	pop	r29
    1f46:	cf 91       	pop	r28
    1f48:	1f 91       	pop	r17
    1f4a:	ff 90       	pop	r15
    1f4c:	ef 90       	pop	r14
    1f4e:	df 90       	pop	r13
    1f50:	cf 90       	pop	r12
    1f52:	08 95       	ret

00001f54 <_ZN5Print17availableForWriteEv>:
    1f54:	80 e0       	ldi	r24, 0x00	; 0
    1f56:	90 e0       	ldi	r25, 0x00	; 0
    1f58:	08 95       	ret

00001f5a <_ZN5Print5flushEv>:
    1f5a:	08 95       	ret

00001f5c <__vector_18>:
    1f5c:	1f 92       	push	r1
    1f5e:	0f 92       	push	r0
    1f60:	0f b6       	in	r0, 0x3f	; 63
    1f62:	0f 92       	push	r0
    1f64:	11 24       	eor	r1, r1
    1f66:	2f 93       	push	r18
    1f68:	8f 93       	push	r24
    1f6a:	9f 93       	push	r25
    1f6c:	ef 93       	push	r30
    1f6e:	ff 93       	push	r31
    1f70:	e0 91 8c 04 	lds	r30, 0x048C	; 0x80048c <Serial+0x10>
    1f74:	f0 91 8d 04 	lds	r31, 0x048D	; 0x80048d <Serial+0x11>
    1f78:	80 81       	ld	r24, Z
    1f7a:	e0 91 92 04 	lds	r30, 0x0492	; 0x800492 <Serial+0x16>
    1f7e:	f0 91 93 04 	lds	r31, 0x0493	; 0x800493 <Serial+0x17>
    1f82:	82 fd       	sbrc	r24, 2
    1f84:	12 c0       	rjmp	.+36     	; 0x1faa <__vector_18+0x4e>
    1f86:	90 81       	ld	r25, Z
    1f88:	80 91 95 04 	lds	r24, 0x0495	; 0x800495 <Serial+0x19>
    1f8c:	8f 5f       	subi	r24, 0xFF	; 255
    1f8e:	8f 73       	andi	r24, 0x3F	; 63
    1f90:	20 91 96 04 	lds	r18, 0x0496	; 0x800496 <Serial+0x1a>
    1f94:	82 17       	cp	r24, r18
    1f96:	51 f0       	breq	.+20     	; 0x1fac <__vector_18+0x50>
    1f98:	e0 91 95 04 	lds	r30, 0x0495	; 0x800495 <Serial+0x19>
    1f9c:	f0 e0       	ldi	r31, 0x00	; 0
    1f9e:	e4 58       	subi	r30, 0x84	; 132
    1fa0:	fb 4f       	sbci	r31, 0xFB	; 251
    1fa2:	95 8f       	std	Z+29, r25	; 0x1d
    1fa4:	80 93 95 04 	sts	0x0495, r24	; 0x800495 <Serial+0x19>
    1fa8:	01 c0       	rjmp	.+2      	; 0x1fac <__vector_18+0x50>
    1faa:	80 81       	ld	r24, Z
    1fac:	ff 91       	pop	r31
    1fae:	ef 91       	pop	r30
    1fb0:	9f 91       	pop	r25
    1fb2:	8f 91       	pop	r24
    1fb4:	2f 91       	pop	r18
    1fb6:	0f 90       	pop	r0
    1fb8:	0f be       	out	0x3f, r0	; 63
    1fba:	0f 90       	pop	r0
    1fbc:	1f 90       	pop	r1
    1fbe:	18 95       	reti

00001fc0 <__vector_19>:
    1fc0:	1f 92       	push	r1
    1fc2:	0f 92       	push	r0
    1fc4:	0f b6       	in	r0, 0x3f	; 63
    1fc6:	0f 92       	push	r0
    1fc8:	11 24       	eor	r1, r1
    1fca:	2f 93       	push	r18
    1fcc:	3f 93       	push	r19
    1fce:	4f 93       	push	r20
    1fd0:	5f 93       	push	r21
    1fd2:	6f 93       	push	r22
    1fd4:	7f 93       	push	r23
    1fd6:	8f 93       	push	r24
    1fd8:	9f 93       	push	r25
    1fda:	af 93       	push	r26
    1fdc:	bf 93       	push	r27
    1fde:	ef 93       	push	r30
    1fe0:	ff 93       	push	r31
    1fe2:	8c e7       	ldi	r24, 0x7C	; 124
    1fe4:	94 e0       	ldi	r25, 0x04	; 4
    1fe6:	0e 94 bb 0e 	call	0x1d76	; 0x1d76 <_ZN14HardwareSerial17_tx_udr_empty_irqEv>
    1fea:	ff 91       	pop	r31
    1fec:	ef 91       	pop	r30
    1fee:	bf 91       	pop	r27
    1ff0:	af 91       	pop	r26
    1ff2:	9f 91       	pop	r25
    1ff4:	8f 91       	pop	r24
    1ff6:	7f 91       	pop	r23
    1ff8:	6f 91       	pop	r22
    1ffa:	5f 91       	pop	r21
    1ffc:	4f 91       	pop	r20
    1ffe:	3f 91       	pop	r19
    2000:	2f 91       	pop	r18
    2002:	0f 90       	pop	r0
    2004:	0f be       	out	0x3f, r0	; 63
    2006:	0f 90       	pop	r0
    2008:	1f 90       	pop	r1
    200a:	18 95       	reti

0000200c <_Z17Serial0_availablev>:
    200c:	8c e7       	ldi	r24, 0x7C	; 124
    200e:	94 e0       	ldi	r25, 0x04	; 4
    2010:	0e 94 70 0e 	call	0x1ce0	; 0x1ce0 <_ZN14HardwareSerial9availableEv>
    2014:	21 e0       	ldi	r18, 0x01	; 1
    2016:	89 2b       	or	r24, r25
    2018:	09 f4       	brne	.+2      	; 0x201c <_Z17Serial0_availablev+0x10>
    201a:	20 e0       	ldi	r18, 0x00	; 0
    201c:	82 2f       	mov	r24, r18
    201e:	08 95       	ret

00002020 <_GLOBAL__sub_I___vector_18>:
    2020:	ec e7       	ldi	r30, 0x7C	; 124
    2022:	f4 e0       	ldi	r31, 0x04	; 4
    2024:	13 82       	std	Z+3, r1	; 0x03
    2026:	12 82       	std	Z+2, r1	; 0x02
    2028:	88 ee       	ldi	r24, 0xE8	; 232
    202a:	93 e0       	ldi	r25, 0x03	; 3
    202c:	a0 e0       	ldi	r26, 0x00	; 0
    202e:	b0 e0       	ldi	r27, 0x00	; 0
    2030:	84 83       	std	Z+4, r24	; 0x04
    2032:	95 83       	std	Z+5, r25	; 0x05
    2034:	a6 83       	std	Z+6, r26	; 0x06
    2036:	b7 83       	std	Z+7, r27	; 0x07
    2038:	89 e5       	ldi	r24, 0x59	; 89
    203a:	93 e0       	ldi	r25, 0x03	; 3
    203c:	91 83       	std	Z+1, r25	; 0x01
    203e:	80 83       	st	Z, r24
    2040:	85 ec       	ldi	r24, 0xC5	; 197
    2042:	90 e0       	ldi	r25, 0x00	; 0
    2044:	95 87       	std	Z+13, r25	; 0x0d
    2046:	84 87       	std	Z+12, r24	; 0x0c
    2048:	84 ec       	ldi	r24, 0xC4	; 196
    204a:	90 e0       	ldi	r25, 0x00	; 0
    204c:	97 87       	std	Z+15, r25	; 0x0f
    204e:	86 87       	std	Z+14, r24	; 0x0e
    2050:	80 ec       	ldi	r24, 0xC0	; 192
    2052:	90 e0       	ldi	r25, 0x00	; 0
    2054:	91 8b       	std	Z+17, r25	; 0x11
    2056:	80 8b       	std	Z+16, r24	; 0x10
    2058:	81 ec       	ldi	r24, 0xC1	; 193
    205a:	90 e0       	ldi	r25, 0x00	; 0
    205c:	93 8b       	std	Z+19, r25	; 0x13
    205e:	82 8b       	std	Z+18, r24	; 0x12
    2060:	82 ec       	ldi	r24, 0xC2	; 194
    2062:	90 e0       	ldi	r25, 0x00	; 0
    2064:	95 8b       	std	Z+21, r25	; 0x15
    2066:	84 8b       	std	Z+20, r24	; 0x14
    2068:	86 ec       	ldi	r24, 0xC6	; 198
    206a:	90 e0       	ldi	r25, 0x00	; 0
    206c:	97 8b       	std	Z+23, r25	; 0x17
    206e:	86 8b       	std	Z+22, r24	; 0x16
    2070:	11 8e       	std	Z+25, r1	; 0x19
    2072:	12 8e       	std	Z+26, r1	; 0x1a
    2074:	13 8e       	std	Z+27, r1	; 0x1b
    2076:	14 8e       	std	Z+28, r1	; 0x1c
    2078:	08 95       	ret

0000207a <initVariant>:
    207a:	08 95       	ret

0000207c <main>:
    207c:	0e 94 d4 12 	call	0x25a8	; 0x25a8 <init>
    2080:	0e 94 3d 10 	call	0x207a	; 0x207a <initVariant>
    2084:	0e 94 8d 0b 	call	0x171a	; 0x171a <setup>
    2088:	cd ea       	ldi	r28, 0xAD	; 173
    208a:	de e0       	ldi	r29, 0x0E	; 14
    208c:	0e 94 51 0c 	call	0x18a2	; 0x18a2 <loop>
    2090:	20 97       	sbiw	r28, 0x00	; 0
    2092:	e1 f3       	breq	.-8      	; 0x208c <main+0x10>
    2094:	0e 94 ad 0e 	call	0x1d5a	; 0x1d5a <_Z14serialEventRunv>
    2098:	f9 cf       	rjmp	.-14     	; 0x208c <main+0x10>

0000209a <_ZN5Print5writeEPKhj>:
    209a:	cf 92       	push	r12
    209c:	df 92       	push	r13
    209e:	ef 92       	push	r14
    20a0:	ff 92       	push	r15
    20a2:	0f 93       	push	r16
    20a4:	1f 93       	push	r17
    20a6:	cf 93       	push	r28
    20a8:	df 93       	push	r29
    20aa:	6c 01       	movw	r12, r24
    20ac:	7a 01       	movw	r14, r20
    20ae:	8b 01       	movw	r16, r22
    20b0:	c0 e0       	ldi	r28, 0x00	; 0
    20b2:	d0 e0       	ldi	r29, 0x00	; 0
    20b4:	ce 15       	cp	r28, r14
    20b6:	df 05       	cpc	r29, r15
    20b8:	81 f0       	breq	.+32     	; 0x20da <_ZN5Print5writeEPKhj+0x40>
    20ba:	d8 01       	movw	r26, r16
    20bc:	6d 91       	ld	r22, X+
    20be:	8d 01       	movw	r16, r26
    20c0:	d6 01       	movw	r26, r12
    20c2:	ed 91       	ld	r30, X+
    20c4:	fc 91       	ld	r31, X
    20c6:	01 90       	ld	r0, Z+
    20c8:	f0 81       	ld	r31, Z
    20ca:	e0 2d       	mov	r30, r0
    20cc:	c6 01       	movw	r24, r12
    20ce:	09 95       	icall
    20d0:	89 2b       	or	r24, r25
    20d2:	11 f0       	breq	.+4      	; 0x20d8 <_ZN5Print5writeEPKhj+0x3e>
    20d4:	21 96       	adiw	r28, 0x01	; 1
    20d6:	ee cf       	rjmp	.-36     	; 0x20b4 <_ZN5Print5writeEPKhj+0x1a>
    20d8:	7e 01       	movw	r14, r28
    20da:	c7 01       	movw	r24, r14
    20dc:	df 91       	pop	r29
    20de:	cf 91       	pop	r28
    20e0:	1f 91       	pop	r17
    20e2:	0f 91       	pop	r16
    20e4:	ff 90       	pop	r15
    20e6:	ef 90       	pop	r14
    20e8:	df 90       	pop	r13
    20ea:	cf 90       	pop	r12
    20ec:	08 95       	ret

000020ee <_ZN5Print5writeEPKc>:
    20ee:	61 15       	cp	r22, r1
    20f0:	71 05       	cpc	r23, r1
    20f2:	79 f0       	breq	.+30     	; 0x2112 <_ZN5Print5writeEPKc+0x24>
    20f4:	fb 01       	movw	r30, r22
    20f6:	01 90       	ld	r0, Z+
    20f8:	00 20       	and	r0, r0
    20fa:	e9 f7       	brne	.-6      	; 0x20f6 <_ZN5Print5writeEPKc+0x8>
    20fc:	31 97       	sbiw	r30, 0x01	; 1
    20fe:	af 01       	movw	r20, r30
    2100:	46 1b       	sub	r20, r22
    2102:	57 0b       	sbc	r21, r23
    2104:	dc 01       	movw	r26, r24
    2106:	ed 91       	ld	r30, X+
    2108:	fc 91       	ld	r31, X
    210a:	02 80       	ldd	r0, Z+2	; 0x02
    210c:	f3 81       	ldd	r31, Z+3	; 0x03
    210e:	e0 2d       	mov	r30, r0
    2110:	09 94       	ijmp
    2112:	80 e0       	ldi	r24, 0x00	; 0
    2114:	90 e0       	ldi	r25, 0x00	; 0
    2116:	08 95       	ret

00002118 <_ZN5Print5printEPKc>:
    2118:	0c 94 77 10 	jmp	0x20ee	; 0x20ee <_ZN5Print5writeEPKc>

0000211c <_ZN5Print5printEc>:
    211c:	dc 01       	movw	r26, r24
    211e:	ed 91       	ld	r30, X+
    2120:	fc 91       	ld	r31, X
    2122:	01 90       	ld	r0, Z+
    2124:	f0 81       	ld	r31, Z
    2126:	e0 2d       	mov	r30, r0
    2128:	09 94       	ijmp

0000212a <_ZN5Print11printNumberEmh>:
    212a:	8f 92       	push	r8
    212c:	9f 92       	push	r9
    212e:	af 92       	push	r10
    2130:	bf 92       	push	r11
    2132:	ef 92       	push	r14
    2134:	ff 92       	push	r15
    2136:	0f 93       	push	r16
    2138:	1f 93       	push	r17
    213a:	cf 93       	push	r28
    213c:	df 93       	push	r29
    213e:	cd b7       	in	r28, 0x3d	; 61
    2140:	de b7       	in	r29, 0x3e	; 62
    2142:	a1 97       	sbiw	r28, 0x21	; 33
    2144:	0f b6       	in	r0, 0x3f	; 63
    2146:	f8 94       	cli
    2148:	de bf       	out	0x3e, r29	; 62
    214a:	0f be       	out	0x3f, r0	; 63
    214c:	cd bf       	out	0x3d, r28	; 61
    214e:	7c 01       	movw	r14, r24
    2150:	fa 01       	movw	r30, r20
    2152:	cb 01       	movw	r24, r22
    2154:	19 a2       	std	Y+33, r1	; 0x21
    2156:	22 30       	cpi	r18, 0x02	; 2
    2158:	08 f4       	brcc	.+2      	; 0x215c <_ZN5Print11printNumberEmh+0x32>
    215a:	2a e0       	ldi	r18, 0x0A	; 10
    215c:	8e 01       	movw	r16, r28
    215e:	0f 5d       	subi	r16, 0xDF	; 223
    2160:	1f 4f       	sbci	r17, 0xFF	; 255
    2162:	82 2e       	mov	r8, r18
    2164:	91 2c       	mov	r9, r1
    2166:	a1 2c       	mov	r10, r1
    2168:	b1 2c       	mov	r11, r1
    216a:	bf 01       	movw	r22, r30
    216c:	a5 01       	movw	r20, r10
    216e:	94 01       	movw	r18, r8
    2170:	0e 94 a7 22 	call	0x454e	; 0x454e <__udivmodsi4>
    2174:	f9 01       	movw	r30, r18
    2176:	ca 01       	movw	r24, r20
    2178:	01 50       	subi	r16, 0x01	; 1
    217a:	11 09       	sbc	r17, r1
    217c:	6a 30       	cpi	r22, 0x0A	; 10
    217e:	10 f4       	brcc	.+4      	; 0x2184 <_ZN5Print11printNumberEmh+0x5a>
    2180:	60 5d       	subi	r22, 0xD0	; 208
    2182:	01 c0       	rjmp	.+2      	; 0x2186 <_ZN5Print11printNumberEmh+0x5c>
    2184:	69 5c       	subi	r22, 0xC9	; 201
    2186:	d8 01       	movw	r26, r16
    2188:	6c 93       	st	X, r22
    218a:	23 2b       	or	r18, r19
    218c:	24 2b       	or	r18, r20
    218e:	25 2b       	or	r18, r21
    2190:	61 f7       	brne	.-40     	; 0x216a <_ZN5Print11printNumberEmh+0x40>
    2192:	b8 01       	movw	r22, r16
    2194:	c7 01       	movw	r24, r14
    2196:	0e 94 77 10 	call	0x20ee	; 0x20ee <_ZN5Print5writeEPKc>
    219a:	a1 96       	adiw	r28, 0x21	; 33
    219c:	0f b6       	in	r0, 0x3f	; 63
    219e:	f8 94       	cli
    21a0:	de bf       	out	0x3e, r29	; 62
    21a2:	0f be       	out	0x3f, r0	; 63
    21a4:	cd bf       	out	0x3d, r28	; 61
    21a6:	df 91       	pop	r29
    21a8:	cf 91       	pop	r28
    21aa:	1f 91       	pop	r17
    21ac:	0f 91       	pop	r16
    21ae:	ff 90       	pop	r15
    21b0:	ef 90       	pop	r14
    21b2:	bf 90       	pop	r11
    21b4:	af 90       	pop	r10
    21b6:	9f 90       	pop	r9
    21b8:	8f 90       	pop	r8
    21ba:	08 95       	ret

000021bc <_ZN5Print5printEmi>:
    21bc:	21 15       	cp	r18, r1
    21be:	31 05       	cpc	r19, r1
    21c0:	41 f4       	brne	.+16     	; 0x21d2 <_ZN5Print5printEmi+0x16>
    21c2:	dc 01       	movw	r26, r24
    21c4:	ed 91       	ld	r30, X+
    21c6:	fc 91       	ld	r31, X
    21c8:	01 90       	ld	r0, Z+
    21ca:	f0 81       	ld	r31, Z
    21cc:	e0 2d       	mov	r30, r0
    21ce:	64 2f       	mov	r22, r20
    21d0:	09 94       	ijmp
    21d2:	0c 94 95 10 	jmp	0x212a	; 0x212a <_ZN5Print11printNumberEmh>

000021d6 <_ZN5Print5printEji>:
    21d6:	9a 01       	movw	r18, r20
    21d8:	ab 01       	movw	r20, r22
    21da:	60 e0       	ldi	r22, 0x00	; 0
    21dc:	70 e0       	ldi	r23, 0x00	; 0
    21de:	0c 94 de 10 	jmp	0x21bc	; 0x21bc <_ZN5Print5printEmi>

000021e2 <_ZN5Print5printEli>:
    21e2:	cf 92       	push	r12
    21e4:	df 92       	push	r13
    21e6:	ef 92       	push	r14
    21e8:	ff 92       	push	r15
    21ea:	0f 93       	push	r16
    21ec:	1f 93       	push	r17
    21ee:	cf 93       	push	r28
    21f0:	df 93       	push	r29
    21f2:	21 15       	cp	r18, r1
    21f4:	31 05       	cpc	r19, r1
    21f6:	81 f4       	brne	.+32     	; 0x2218 <_ZN5Print5printEli+0x36>
    21f8:	dc 01       	movw	r26, r24
    21fa:	ed 91       	ld	r30, X+
    21fc:	fc 91       	ld	r31, X
    21fe:	01 90       	ld	r0, Z+
    2200:	f0 81       	ld	r31, Z
    2202:	e0 2d       	mov	r30, r0
    2204:	64 2f       	mov	r22, r20
    2206:	df 91       	pop	r29
    2208:	cf 91       	pop	r28
    220a:	1f 91       	pop	r17
    220c:	0f 91       	pop	r16
    220e:	ff 90       	pop	r15
    2210:	ef 90       	pop	r14
    2212:	df 90       	pop	r13
    2214:	cf 90       	pop	r12
    2216:	09 94       	ijmp
    2218:	2a 30       	cpi	r18, 0x0A	; 10
    221a:	31 05       	cpc	r19, r1
    221c:	01 f5       	brne	.+64     	; 0x225e <_ZN5Print5printEli+0x7c>
    221e:	77 ff       	sbrs	r23, 7
    2220:	1d c0       	rjmp	.+58     	; 0x225c <_ZN5Print5printEli+0x7a>
    2222:	6a 01       	movw	r12, r20
    2224:	7b 01       	movw	r14, r22
    2226:	ec 01       	movw	r28, r24
    2228:	6d e2       	ldi	r22, 0x2D	; 45
    222a:	0e 94 8e 10 	call	0x211c	; 0x211c <_ZN5Print5printEc>
    222e:	8c 01       	movw	r16, r24
    2230:	44 27       	eor	r20, r20
    2232:	55 27       	eor	r21, r21
    2234:	ba 01       	movw	r22, r20
    2236:	4c 19       	sub	r20, r12
    2238:	5d 09       	sbc	r21, r13
    223a:	6e 09       	sbc	r22, r14
    223c:	7f 09       	sbc	r23, r15
    223e:	2a e0       	ldi	r18, 0x0A	; 10
    2240:	ce 01       	movw	r24, r28
    2242:	0e 94 95 10 	call	0x212a	; 0x212a <_ZN5Print11printNumberEmh>
    2246:	80 0f       	add	r24, r16
    2248:	91 1f       	adc	r25, r17
    224a:	df 91       	pop	r29
    224c:	cf 91       	pop	r28
    224e:	1f 91       	pop	r17
    2250:	0f 91       	pop	r16
    2252:	ff 90       	pop	r15
    2254:	ef 90       	pop	r14
    2256:	df 90       	pop	r13
    2258:	cf 90       	pop	r12
    225a:	08 95       	ret
    225c:	2a e0       	ldi	r18, 0x0A	; 10
    225e:	df 91       	pop	r29
    2260:	cf 91       	pop	r28
    2262:	1f 91       	pop	r17
    2264:	0f 91       	pop	r16
    2266:	ff 90       	pop	r15
    2268:	ef 90       	pop	r14
    226a:	df 90       	pop	r13
    226c:	cf 90       	pop	r12
    226e:	0c 94 95 10 	jmp	0x212a	; 0x212a <_ZN5Print11printNumberEmh>

00002272 <_ZN5Print5printEii>:
    2272:	9a 01       	movw	r18, r20
    2274:	ab 01       	movw	r20, r22
    2276:	77 0f       	add	r23, r23
    2278:	66 0b       	sbc	r22, r22
    227a:	77 0b       	sbc	r23, r23
    227c:	0c 94 f1 10 	jmp	0x21e2	; 0x21e2 <_ZN5Print5printEli>

00002280 <_ZN5Print10printFloatEdh>:
    2280:	7f 92       	push	r7
    2282:	8f 92       	push	r8
    2284:	9f 92       	push	r9
    2286:	af 92       	push	r10
    2288:	bf 92       	push	r11
    228a:	cf 92       	push	r12
    228c:	df 92       	push	r13
    228e:	ef 92       	push	r14
    2290:	ff 92       	push	r15
    2292:	0f 93       	push	r16
    2294:	1f 93       	push	r17
    2296:	cf 93       	push	r28
    2298:	df 93       	push	r29
    229a:	8c 01       	movw	r16, r24
    229c:	6a 01       	movw	r12, r20
    229e:	7b 01       	movw	r14, r22
    22a0:	72 2e       	mov	r7, r18
    22a2:	9a 01       	movw	r18, r20
    22a4:	ab 01       	movw	r20, r22
    22a6:	c7 01       	movw	r24, r14
    22a8:	b6 01       	movw	r22, r12
    22aa:	0e 94 92 22 	call	0x4524	; 0x4524 <__unordsf2>
    22ae:	88 23       	and	r24, r24
    22b0:	19 f0       	breq	.+6      	; 0x22b8 <_ZN5Print10printFloatEdh+0x38>
    22b2:	6a e6       	ldi	r22, 0x6A	; 106
    22b4:	73 e0       	ldi	r23, 0x03	; 3
    22b6:	27 c0       	rjmp	.+78     	; 0x2306 <_ZN5Print10printFloatEdh+0x86>
    22b8:	46 01       	movw	r8, r12
    22ba:	57 01       	movw	r10, r14
    22bc:	e8 94       	clt
    22be:	b7 f8       	bld	r11, 7
    22c0:	2f ef       	ldi	r18, 0xFF	; 255
    22c2:	3f ef       	ldi	r19, 0xFF	; 255
    22c4:	4f e7       	ldi	r20, 0x7F	; 127
    22c6:	5f e7       	ldi	r21, 0x7F	; 127
    22c8:	c5 01       	movw	r24, r10
    22ca:	b4 01       	movw	r22, r8
    22cc:	0e 94 92 22 	call	0x4524	; 0x4524 <__unordsf2>
    22d0:	81 11       	cpse	r24, r1
    22d2:	0d c0       	rjmp	.+26     	; 0x22ee <_ZN5Print10printFloatEdh+0x6e>
    22d4:	2f ef       	ldi	r18, 0xFF	; 255
    22d6:	3f ef       	ldi	r19, 0xFF	; 255
    22d8:	4f e7       	ldi	r20, 0x7F	; 127
    22da:	5f e7       	ldi	r21, 0x7F	; 127
    22dc:	c5 01       	movw	r24, r10
    22de:	b4 01       	movw	r22, r8
    22e0:	0e 94 64 22 	call	0x44c8	; 0x44c8 <__cmpsf2>
    22e4:	18 16       	cp	r1, r24
    22e6:	1c f4       	brge	.+6      	; 0x22ee <_ZN5Print10printFloatEdh+0x6e>
    22e8:	6e e6       	ldi	r22, 0x6E	; 110
    22ea:	73 e0       	ldi	r23, 0x03	; 3
    22ec:	0c c0       	rjmp	.+24     	; 0x2306 <_ZN5Print10printFloatEdh+0x86>
    22ee:	2f ef       	ldi	r18, 0xFF	; 255
    22f0:	3f ef       	ldi	r19, 0xFF	; 255
    22f2:	4f e7       	ldi	r20, 0x7F	; 127
    22f4:	5f e4       	ldi	r21, 0x4F	; 79
    22f6:	c7 01       	movw	r24, r14
    22f8:	b6 01       	movw	r22, r12
    22fa:	0e 94 8d 22 	call	0x451a	; 0x451a <__gesf2>
    22fe:	18 16       	cp	r1, r24
    2300:	94 f4       	brge	.+36     	; 0x2326 <_ZN5Print10printFloatEdh+0xa6>
    2302:	62 e7       	ldi	r22, 0x72	; 114
    2304:	73 e0       	ldi	r23, 0x03	; 3
    2306:	c8 01       	movw	r24, r16
    2308:	df 91       	pop	r29
    230a:	cf 91       	pop	r28
    230c:	1f 91       	pop	r17
    230e:	0f 91       	pop	r16
    2310:	ff 90       	pop	r15
    2312:	ef 90       	pop	r14
    2314:	df 90       	pop	r13
    2316:	cf 90       	pop	r12
    2318:	bf 90       	pop	r11
    231a:	af 90       	pop	r10
    231c:	9f 90       	pop	r9
    231e:	8f 90       	pop	r8
    2320:	7f 90       	pop	r7
    2322:	0c 94 77 10 	jmp	0x20ee	; 0x20ee <_ZN5Print5writeEPKc>
    2326:	2f ef       	ldi	r18, 0xFF	; 255
    2328:	3f ef       	ldi	r19, 0xFF	; 255
    232a:	4f e7       	ldi	r20, 0x7F	; 127
    232c:	5f ec       	ldi	r21, 0xCF	; 207
    232e:	c7 01       	movw	r24, r14
    2330:	b6 01       	movw	r22, r12
    2332:	0e 94 64 22 	call	0x44c8	; 0x44c8 <__cmpsf2>
    2336:	87 fd       	sbrc	r24, 7
    2338:	e4 cf       	rjmp	.-56     	; 0x2302 <_ZN5Print10printFloatEdh+0x82>
    233a:	20 e0       	ldi	r18, 0x00	; 0
    233c:	30 e0       	ldi	r19, 0x00	; 0
    233e:	a9 01       	movw	r20, r18
    2340:	c7 01       	movw	r24, r14
    2342:	b6 01       	movw	r22, r12
    2344:	0e 94 64 22 	call	0x44c8	; 0x44c8 <__cmpsf2>
    2348:	87 ff       	sbrs	r24, 7
    234a:	0a c0       	rjmp	.+20     	; 0x2360 <_ZN5Print10printFloatEdh+0xe0>
    234c:	6d e2       	ldi	r22, 0x2D	; 45
    234e:	c8 01       	movw	r24, r16
    2350:	0e 94 8e 10 	call	0x211c	; 0x211c <_ZN5Print5printEc>
    2354:	ec 01       	movw	r28, r24
    2356:	f7 fa       	bst	r15, 7
    2358:	f0 94       	com	r15
    235a:	f7 f8       	bld	r15, 7
    235c:	f0 94       	com	r15
    235e:	02 c0       	rjmp	.+4      	; 0x2364 <_ZN5Print10printFloatEdh+0xe4>
    2360:	c0 e0       	ldi	r28, 0x00	; 0
    2362:	d0 e0       	ldi	r29, 0x00	; 0
    2364:	b1 2c       	mov	r11, r1
    2366:	60 e0       	ldi	r22, 0x00	; 0
    2368:	70 e0       	ldi	r23, 0x00	; 0
    236a:	80 e0       	ldi	r24, 0x00	; 0
    236c:	9f e3       	ldi	r25, 0x3F	; 63
    236e:	7b 14       	cp	r7, r11
    2370:	41 f0       	breq	.+16     	; 0x2382 <_ZN5Print10printFloatEdh+0x102>
    2372:	20 e0       	ldi	r18, 0x00	; 0
    2374:	30 e0       	ldi	r19, 0x00	; 0
    2376:	40 e2       	ldi	r20, 0x20	; 32
    2378:	51 e4       	ldi	r21, 0x41	; 65
    237a:	0e 94 cd 0c 	call	0x199a	; 0x199a <__divsf3>
    237e:	b3 94       	inc	r11
    2380:	f6 cf       	rjmp	.-20     	; 0x236e <_ZN5Print10printFloatEdh+0xee>
    2382:	a7 01       	movw	r20, r14
    2384:	96 01       	movw	r18, r12
    2386:	0e 94 61 0c 	call	0x18c2	; 0x18c2 <__addsf3>
    238a:	6b 01       	movw	r12, r22
    238c:	7c 01       	movw	r14, r24
    238e:	0e 94 46 0d 	call	0x1a8c	; 0x1a8c <__fixunssfsi>
    2392:	4b 01       	movw	r8, r22
    2394:	5c 01       	movw	r10, r24
    2396:	2a e0       	ldi	r18, 0x0A	; 10
    2398:	ab 01       	movw	r20, r22
    239a:	bc 01       	movw	r22, r24
    239c:	c8 01       	movw	r24, r16
    239e:	0e 94 95 10 	call	0x212a	; 0x212a <_ZN5Print11printNumberEmh>
    23a2:	c8 0f       	add	r28, r24
    23a4:	d9 1f       	adc	r29, r25
    23a6:	77 20       	and	r7, r7
    23a8:	b9 f1       	breq	.+110    	; 0x2418 <_ZN5Print10printFloatEdh+0x198>
    23aa:	c5 01       	movw	r24, r10
    23ac:	b4 01       	movw	r22, r8
    23ae:	0e 94 75 0d 	call	0x1aea	; 0x1aea <__floatunsisf>
    23b2:	9b 01       	movw	r18, r22
    23b4:	ac 01       	movw	r20, r24
    23b6:	c7 01       	movw	r24, r14
    23b8:	b6 01       	movw	r22, r12
    23ba:	0e 94 60 0c 	call	0x18c0	; 0x18c0 <__subsf3>
    23be:	6b 01       	movw	r12, r22
    23c0:	7c 01       	movw	r14, r24
    23c2:	6e e2       	ldi	r22, 0x2E	; 46
    23c4:	c8 01       	movw	r24, r16
    23c6:	0e 94 8e 10 	call	0x211c	; 0x211c <_ZN5Print5printEc>
    23ca:	c8 0f       	add	r28, r24
    23cc:	d9 1f       	adc	r29, r25
    23ce:	20 e0       	ldi	r18, 0x00	; 0
    23d0:	30 e0       	ldi	r19, 0x00	; 0
    23d2:	40 e2       	ldi	r20, 0x20	; 32
    23d4:	51 e4       	ldi	r21, 0x41	; 65
    23d6:	c7 01       	movw	r24, r14
    23d8:	b6 01       	movw	r22, r12
    23da:	0e 94 03 0e 	call	0x1c06	; 0x1c06 <__mulsf3>
    23de:	4b 01       	movw	r8, r22
    23e0:	5c 01       	movw	r10, r24
    23e2:	0e 94 46 0d 	call	0x1a8c	; 0x1a8c <__fixunssfsi>
    23e6:	6b 01       	movw	r12, r22
    23e8:	7c 01       	movw	r14, r24
    23ea:	4a e0       	ldi	r20, 0x0A	; 10
    23ec:	50 e0       	ldi	r21, 0x00	; 0
    23ee:	c8 01       	movw	r24, r16
    23f0:	0e 94 eb 10 	call	0x21d6	; 0x21d6 <_ZN5Print5printEji>
    23f4:	c8 0f       	add	r28, r24
    23f6:	d9 1f       	adc	r29, r25
    23f8:	b6 01       	movw	r22, r12
    23fa:	80 e0       	ldi	r24, 0x00	; 0
    23fc:	90 e0       	ldi	r25, 0x00	; 0
    23fe:	0e 94 75 0d 	call	0x1aea	; 0x1aea <__floatunsisf>
    2402:	9b 01       	movw	r18, r22
    2404:	ac 01       	movw	r20, r24
    2406:	c5 01       	movw	r24, r10
    2408:	b4 01       	movw	r22, r8
    240a:	0e 94 60 0c 	call	0x18c0	; 0x18c0 <__subsf3>
    240e:	6b 01       	movw	r12, r22
    2410:	7c 01       	movw	r14, r24
    2412:	7a 94       	dec	r7
    2414:	71 10       	cpse	r7, r1
    2416:	db cf       	rjmp	.-74     	; 0x23ce <_ZN5Print10printFloatEdh+0x14e>
    2418:	ce 01       	movw	r24, r28
    241a:	df 91       	pop	r29
    241c:	cf 91       	pop	r28
    241e:	1f 91       	pop	r17
    2420:	0f 91       	pop	r16
    2422:	ff 90       	pop	r15
    2424:	ef 90       	pop	r14
    2426:	df 90       	pop	r13
    2428:	cf 90       	pop	r12
    242a:	bf 90       	pop	r11
    242c:	af 90       	pop	r10
    242e:	9f 90       	pop	r9
    2430:	8f 90       	pop	r8
    2432:	7f 90       	pop	r7
    2434:	08 95       	ret

00002436 <_ZN5Print5printEdi>:
    2436:	0c 94 40 11 	jmp	0x2280	; 0x2280 <_ZN5Print10printFloatEdh>

0000243a <__vector_16>:
    243a:	1f 92       	push	r1
    243c:	0f 92       	push	r0
    243e:	0f b6       	in	r0, 0x3f	; 63
    2440:	0f 92       	push	r0
    2442:	11 24       	eor	r1, r1
    2444:	2f 93       	push	r18
    2446:	3f 93       	push	r19
    2448:	8f 93       	push	r24
    244a:	9f 93       	push	r25
    244c:	af 93       	push	r26
    244e:	bf 93       	push	r27
    2450:	80 91 1a 05 	lds	r24, 0x051A	; 0x80051a <timer0_millis>
    2454:	90 91 1b 05 	lds	r25, 0x051B	; 0x80051b <timer0_millis+0x1>
    2458:	a0 91 1c 05 	lds	r26, 0x051C	; 0x80051c <timer0_millis+0x2>
    245c:	b0 91 1d 05 	lds	r27, 0x051D	; 0x80051d <timer0_millis+0x3>
    2460:	30 91 19 05 	lds	r19, 0x0519	; 0x800519 <timer0_fract>
    2464:	23 e0       	ldi	r18, 0x03	; 3
    2466:	23 0f       	add	r18, r19
    2468:	2d 37       	cpi	r18, 0x7D	; 125
    246a:	20 f4       	brcc	.+8      	; 0x2474 <__vector_16+0x3a>
    246c:	01 96       	adiw	r24, 0x01	; 1
    246e:	a1 1d       	adc	r26, r1
    2470:	b1 1d       	adc	r27, r1
    2472:	05 c0       	rjmp	.+10     	; 0x247e <__vector_16+0x44>
    2474:	26 e8       	ldi	r18, 0x86	; 134
    2476:	23 0f       	add	r18, r19
    2478:	02 96       	adiw	r24, 0x02	; 2
    247a:	a1 1d       	adc	r26, r1
    247c:	b1 1d       	adc	r27, r1
    247e:	20 93 19 05 	sts	0x0519, r18	; 0x800519 <timer0_fract>
    2482:	80 93 1a 05 	sts	0x051A, r24	; 0x80051a <timer0_millis>
    2486:	90 93 1b 05 	sts	0x051B, r25	; 0x80051b <timer0_millis+0x1>
    248a:	a0 93 1c 05 	sts	0x051C, r26	; 0x80051c <timer0_millis+0x2>
    248e:	b0 93 1d 05 	sts	0x051D, r27	; 0x80051d <timer0_millis+0x3>
    2492:	80 91 1e 05 	lds	r24, 0x051E	; 0x80051e <timer0_overflow_count>
    2496:	90 91 1f 05 	lds	r25, 0x051F	; 0x80051f <timer0_overflow_count+0x1>
    249a:	a0 91 20 05 	lds	r26, 0x0520	; 0x800520 <timer0_overflow_count+0x2>
    249e:	b0 91 21 05 	lds	r27, 0x0521	; 0x800521 <timer0_overflow_count+0x3>
    24a2:	01 96       	adiw	r24, 0x01	; 1
    24a4:	a1 1d       	adc	r26, r1
    24a6:	b1 1d       	adc	r27, r1
    24a8:	80 93 1e 05 	sts	0x051E, r24	; 0x80051e <timer0_overflow_count>
    24ac:	90 93 1f 05 	sts	0x051F, r25	; 0x80051f <timer0_overflow_count+0x1>
    24b0:	a0 93 20 05 	sts	0x0520, r26	; 0x800520 <timer0_overflow_count+0x2>
    24b4:	b0 93 21 05 	sts	0x0521, r27	; 0x800521 <timer0_overflow_count+0x3>
    24b8:	bf 91       	pop	r27
    24ba:	af 91       	pop	r26
    24bc:	9f 91       	pop	r25
    24be:	8f 91       	pop	r24
    24c0:	3f 91       	pop	r19
    24c2:	2f 91       	pop	r18
    24c4:	0f 90       	pop	r0
    24c6:	0f be       	out	0x3f, r0	; 63
    24c8:	0f 90       	pop	r0
    24ca:	1f 90       	pop	r1
    24cc:	18 95       	reti

000024ce <millis>:
    24ce:	2f b7       	in	r18, 0x3f	; 63
    24d0:	f8 94       	cli
    24d2:	60 91 1a 05 	lds	r22, 0x051A	; 0x80051a <timer0_millis>
    24d6:	70 91 1b 05 	lds	r23, 0x051B	; 0x80051b <timer0_millis+0x1>
    24da:	80 91 1c 05 	lds	r24, 0x051C	; 0x80051c <timer0_millis+0x2>
    24de:	90 91 1d 05 	lds	r25, 0x051D	; 0x80051d <timer0_millis+0x3>
    24e2:	2f bf       	out	0x3f, r18	; 63
    24e4:	08 95       	ret

000024e6 <micros>:
    24e6:	3f b7       	in	r19, 0x3f	; 63
    24e8:	f8 94       	cli
    24ea:	80 91 1e 05 	lds	r24, 0x051E	; 0x80051e <timer0_overflow_count>
    24ee:	90 91 1f 05 	lds	r25, 0x051F	; 0x80051f <timer0_overflow_count+0x1>
    24f2:	a0 91 20 05 	lds	r26, 0x0520	; 0x800520 <timer0_overflow_count+0x2>
    24f6:	b0 91 21 05 	lds	r27, 0x0521	; 0x800521 <timer0_overflow_count+0x3>
    24fa:	26 b5       	in	r18, 0x26	; 38
    24fc:	a8 9b       	sbis	0x15, 0	; 21
    24fe:	05 c0       	rjmp	.+10     	; 0x250a <micros+0x24>
    2500:	2f 3f       	cpi	r18, 0xFF	; 255
    2502:	19 f0       	breq	.+6      	; 0x250a <micros+0x24>
    2504:	01 96       	adiw	r24, 0x01	; 1
    2506:	a1 1d       	adc	r26, r1
    2508:	b1 1d       	adc	r27, r1
    250a:	3f bf       	out	0x3f, r19	; 63
    250c:	ba 2f       	mov	r27, r26
    250e:	a9 2f       	mov	r26, r25
    2510:	98 2f       	mov	r25, r24
    2512:	88 27       	eor	r24, r24
    2514:	82 0f       	add	r24, r18
    2516:	91 1d       	adc	r25, r1
    2518:	a1 1d       	adc	r26, r1
    251a:	b1 1d       	adc	r27, r1
    251c:	bc 01       	movw	r22, r24
    251e:	cd 01       	movw	r24, r26
    2520:	42 e0       	ldi	r20, 0x02	; 2
    2522:	66 0f       	add	r22, r22
    2524:	77 1f       	adc	r23, r23
    2526:	88 1f       	adc	r24, r24
    2528:	99 1f       	adc	r25, r25
    252a:	4a 95       	dec	r20
    252c:	d1 f7       	brne	.-12     	; 0x2522 <micros+0x3c>
    252e:	08 95       	ret

00002530 <delay>:
    2530:	8f 92       	push	r8
    2532:	9f 92       	push	r9
    2534:	af 92       	push	r10
    2536:	bf 92       	push	r11
    2538:	cf 92       	push	r12
    253a:	df 92       	push	r13
    253c:	ef 92       	push	r14
    253e:	ff 92       	push	r15
    2540:	6b 01       	movw	r12, r22
    2542:	7c 01       	movw	r14, r24
    2544:	0e 94 73 12 	call	0x24e6	; 0x24e6 <micros>
    2548:	4b 01       	movw	r8, r22
    254a:	5c 01       	movw	r10, r24
    254c:	c1 14       	cp	r12, r1
    254e:	d1 04       	cpc	r13, r1
    2550:	e1 04       	cpc	r14, r1
    2552:	f1 04       	cpc	r15, r1
    2554:	01 f1       	breq	.+64     	; 0x2596 <delay+0x66>
    2556:	0e 94 8a 20 	call	0x4114	; 0x4114 <yield>
    255a:	0e 94 73 12 	call	0x24e6	; 0x24e6 <micros>
    255e:	dc 01       	movw	r26, r24
    2560:	cb 01       	movw	r24, r22
    2562:	88 19       	sub	r24, r8
    2564:	99 09       	sbc	r25, r9
    2566:	aa 09       	sbc	r26, r10
    2568:	bb 09       	sbc	r27, r11
    256a:	88 3e       	cpi	r24, 0xE8	; 232
    256c:	93 40       	sbci	r25, 0x03	; 3
    256e:	a1 05       	cpc	r26, r1
    2570:	b1 05       	cpc	r27, r1
    2572:	60 f3       	brcs	.-40     	; 0x254c <delay+0x1c>
    2574:	21 e0       	ldi	r18, 0x01	; 1
    2576:	c2 1a       	sub	r12, r18
    2578:	d1 08       	sbc	r13, r1
    257a:	e1 08       	sbc	r14, r1
    257c:	f1 08       	sbc	r15, r1
    257e:	88 ee       	ldi	r24, 0xE8	; 232
    2580:	88 0e       	add	r8, r24
    2582:	83 e0       	ldi	r24, 0x03	; 3
    2584:	98 1e       	adc	r9, r24
    2586:	a1 1c       	adc	r10, r1
    2588:	b1 1c       	adc	r11, r1
    258a:	c1 14       	cp	r12, r1
    258c:	d1 04       	cpc	r13, r1
    258e:	e1 04       	cpc	r14, r1
    2590:	f1 04       	cpc	r15, r1
    2592:	19 f7       	brne	.-58     	; 0x255a <delay+0x2a>
    2594:	db cf       	rjmp	.-74     	; 0x254c <delay+0x1c>
    2596:	ff 90       	pop	r15
    2598:	ef 90       	pop	r14
    259a:	df 90       	pop	r13
    259c:	cf 90       	pop	r12
    259e:	bf 90       	pop	r11
    25a0:	af 90       	pop	r10
    25a2:	9f 90       	pop	r9
    25a4:	8f 90       	pop	r8
    25a6:	08 95       	ret

000025a8 <init>:
    25a8:	78 94       	sei
    25aa:	84 b5       	in	r24, 0x24	; 36
    25ac:	82 60       	ori	r24, 0x02	; 2
    25ae:	84 bd       	out	0x24, r24	; 36
    25b0:	84 b5       	in	r24, 0x24	; 36
    25b2:	81 60       	ori	r24, 0x01	; 1
    25b4:	84 bd       	out	0x24, r24	; 36
    25b6:	85 b5       	in	r24, 0x25	; 37
    25b8:	82 60       	ori	r24, 0x02	; 2
    25ba:	85 bd       	out	0x25, r24	; 37
    25bc:	85 b5       	in	r24, 0x25	; 37
    25be:	81 60       	ori	r24, 0x01	; 1
    25c0:	85 bd       	out	0x25, r24	; 37
    25c2:	ee e6       	ldi	r30, 0x6E	; 110
    25c4:	f0 e0       	ldi	r31, 0x00	; 0
    25c6:	80 81       	ld	r24, Z
    25c8:	81 60       	ori	r24, 0x01	; 1
    25ca:	80 83       	st	Z, r24
    25cc:	e1 e8       	ldi	r30, 0x81	; 129
    25ce:	f0 e0       	ldi	r31, 0x00	; 0
    25d0:	10 82       	st	Z, r1
    25d2:	80 81       	ld	r24, Z
    25d4:	82 60       	ori	r24, 0x02	; 2
    25d6:	80 83       	st	Z, r24
    25d8:	80 81       	ld	r24, Z
    25da:	81 60       	ori	r24, 0x01	; 1
    25dc:	80 83       	st	Z, r24
    25de:	e0 e8       	ldi	r30, 0x80	; 128
    25e0:	f0 e0       	ldi	r31, 0x00	; 0
    25e2:	80 81       	ld	r24, Z
    25e4:	81 60       	ori	r24, 0x01	; 1
    25e6:	80 83       	st	Z, r24
    25e8:	e1 eb       	ldi	r30, 0xB1	; 177
    25ea:	f0 e0       	ldi	r31, 0x00	; 0
    25ec:	80 81       	ld	r24, Z
    25ee:	84 60       	ori	r24, 0x04	; 4
    25f0:	80 83       	st	Z, r24
    25f2:	e0 eb       	ldi	r30, 0xB0	; 176
    25f4:	f0 e0       	ldi	r31, 0x00	; 0
    25f6:	80 81       	ld	r24, Z
    25f8:	81 60       	ori	r24, 0x01	; 1
    25fa:	80 83       	st	Z, r24
    25fc:	ea e7       	ldi	r30, 0x7A	; 122
    25fe:	f0 e0       	ldi	r31, 0x00	; 0
    2600:	80 81       	ld	r24, Z
    2602:	84 60       	ori	r24, 0x04	; 4
    2604:	80 83       	st	Z, r24
    2606:	80 81       	ld	r24, Z
    2608:	82 60       	ori	r24, 0x02	; 2
    260a:	80 83       	st	Z, r24
    260c:	80 81       	ld	r24, Z
    260e:	81 60       	ori	r24, 0x01	; 1
    2610:	80 83       	st	Z, r24
    2612:	80 81       	ld	r24, Z
    2614:	80 68       	ori	r24, 0x80	; 128
    2616:	80 83       	st	Z, r24
    2618:	10 92 c1 00 	sts	0x00C1, r1	; 0x8000c1 <__TEXT_REGION_LENGTH__+0x7e00c1>
    261c:	08 95       	ret

0000261e <turnOffPWM>:
    261e:	83 30       	cpi	r24, 0x03	; 3
    2620:	81 f0       	breq	.+32     	; 0x2642 <turnOffPWM+0x24>
    2622:	28 f4       	brcc	.+10     	; 0x262e <turnOffPWM+0x10>
    2624:	81 30       	cpi	r24, 0x01	; 1
    2626:	99 f0       	breq	.+38     	; 0x264e <turnOffPWM+0x30>
    2628:	82 30       	cpi	r24, 0x02	; 2
    262a:	a1 f0       	breq	.+40     	; 0x2654 <turnOffPWM+0x36>
    262c:	08 95       	ret
    262e:	87 30       	cpi	r24, 0x07	; 7
    2630:	a9 f0       	breq	.+42     	; 0x265c <turnOffPWM+0x3e>
    2632:	88 30       	cpi	r24, 0x08	; 8
    2634:	b9 f0       	breq	.+46     	; 0x2664 <turnOffPWM+0x46>
    2636:	84 30       	cpi	r24, 0x04	; 4
    2638:	d1 f4       	brne	.+52     	; 0x266e <turnOffPWM+0x50>
    263a:	80 91 80 00 	lds	r24, 0x0080	; 0x800080 <__TEXT_REGION_LENGTH__+0x7e0080>
    263e:	8f 7d       	andi	r24, 0xDF	; 223
    2640:	03 c0       	rjmp	.+6      	; 0x2648 <turnOffPWM+0x2a>
    2642:	80 91 80 00 	lds	r24, 0x0080	; 0x800080 <__TEXT_REGION_LENGTH__+0x7e0080>
    2646:	8f 77       	andi	r24, 0x7F	; 127
    2648:	80 93 80 00 	sts	0x0080, r24	; 0x800080 <__TEXT_REGION_LENGTH__+0x7e0080>
    264c:	08 95       	ret
    264e:	84 b5       	in	r24, 0x24	; 36
    2650:	8f 77       	andi	r24, 0x7F	; 127
    2652:	02 c0       	rjmp	.+4      	; 0x2658 <turnOffPWM+0x3a>
    2654:	84 b5       	in	r24, 0x24	; 36
    2656:	8f 7d       	andi	r24, 0xDF	; 223
    2658:	84 bd       	out	0x24, r24	; 36
    265a:	08 95       	ret
    265c:	80 91 b0 00 	lds	r24, 0x00B0	; 0x8000b0 <__TEXT_REGION_LENGTH__+0x7e00b0>
    2660:	8f 77       	andi	r24, 0x7F	; 127
    2662:	03 c0       	rjmp	.+6      	; 0x266a <turnOffPWM+0x4c>
    2664:	80 91 b0 00 	lds	r24, 0x00B0	; 0x8000b0 <__TEXT_REGION_LENGTH__+0x7e00b0>
    2668:	8f 7d       	andi	r24, 0xDF	; 223
    266a:	80 93 b0 00 	sts	0x00B0, r24	; 0x8000b0 <__TEXT_REGION_LENGTH__+0x7e00b0>
    266e:	08 95       	ret

00002670 <pinMode>:
    2670:	cf 93       	push	r28
    2672:	df 93       	push	r29
    2674:	90 e0       	ldi	r25, 0x00	; 0
    2676:	fc 01       	movw	r30, r24
    2678:	e0 57       	subi	r30, 0x70	; 112
    267a:	ff 4f       	sbci	r31, 0xFF	; 255
    267c:	24 91       	lpm	r18, Z
    267e:	fc 01       	movw	r30, r24
    2680:	ec 55       	subi	r30, 0x5C	; 92
    2682:	ff 4f       	sbci	r31, 0xFF	; 255
    2684:	84 91       	lpm	r24, Z
    2686:	88 23       	and	r24, r24
    2688:	61 f1       	breq	.+88     	; 0x26e2 <pinMode+0x72>
    268a:	90 e0       	ldi	r25, 0x00	; 0
    268c:	88 0f       	add	r24, r24
    268e:	99 1f       	adc	r25, r25
    2690:	fc 01       	movw	r30, r24
    2692:	e4 53       	subi	r30, 0x34	; 52
    2694:	ff 4f       	sbci	r31, 0xFF	; 255
    2696:	c5 91       	lpm	r28, Z+
    2698:	d4 91       	lpm	r29, Z
    269a:	fc 01       	movw	r30, r24
    269c:	ee 53       	subi	r30, 0x3E	; 62
    269e:	ff 4f       	sbci	r31, 0xFF	; 255
    26a0:	a5 91       	lpm	r26, Z+
    26a2:	b4 91       	lpm	r27, Z
    26a4:	61 11       	cpse	r22, r1
    26a6:	09 c0       	rjmp	.+18     	; 0x26ba <pinMode+0x4a>
    26a8:	9f b7       	in	r25, 0x3f	; 63
    26aa:	f8 94       	cli
    26ac:	88 81       	ld	r24, Y
    26ae:	20 95       	com	r18
    26b0:	82 23       	and	r24, r18
    26b2:	88 83       	st	Y, r24
    26b4:	ec 91       	ld	r30, X
    26b6:	2e 23       	and	r18, r30
    26b8:	0b c0       	rjmp	.+22     	; 0x26d0 <pinMode+0x60>
    26ba:	62 30       	cpi	r22, 0x02	; 2
    26bc:	61 f4       	brne	.+24     	; 0x26d6 <pinMode+0x66>
    26be:	9f b7       	in	r25, 0x3f	; 63
    26c0:	f8 94       	cli
    26c2:	88 81       	ld	r24, Y
    26c4:	32 2f       	mov	r19, r18
    26c6:	30 95       	com	r19
    26c8:	83 23       	and	r24, r19
    26ca:	88 83       	st	Y, r24
    26cc:	ec 91       	ld	r30, X
    26ce:	2e 2b       	or	r18, r30
    26d0:	2c 93       	st	X, r18
    26d2:	9f bf       	out	0x3f, r25	; 63
    26d4:	06 c0       	rjmp	.+12     	; 0x26e2 <pinMode+0x72>
    26d6:	8f b7       	in	r24, 0x3f	; 63
    26d8:	f8 94       	cli
    26da:	e8 81       	ld	r30, Y
    26dc:	2e 2b       	or	r18, r30
    26de:	28 83       	st	Y, r18
    26e0:	8f bf       	out	0x3f, r24	; 63
    26e2:	df 91       	pop	r29
    26e4:	cf 91       	pop	r28
    26e6:	08 95       	ret

000026e8 <digitalWrite>:
    26e8:	1f 93       	push	r17
    26ea:	cf 93       	push	r28
    26ec:	df 93       	push	r29
    26ee:	28 2f       	mov	r18, r24
    26f0:	30 e0       	ldi	r19, 0x00	; 0
    26f2:	f9 01       	movw	r30, r18
    26f4:	e4 58       	subi	r30, 0x84	; 132
    26f6:	ff 4f       	sbci	r31, 0xFF	; 255
    26f8:	84 91       	lpm	r24, Z
    26fa:	f9 01       	movw	r30, r18
    26fc:	e0 57       	subi	r30, 0x70	; 112
    26fe:	ff 4f       	sbci	r31, 0xFF	; 255
    2700:	d4 91       	lpm	r29, Z
    2702:	f9 01       	movw	r30, r18
    2704:	ec 55       	subi	r30, 0x5C	; 92
    2706:	ff 4f       	sbci	r31, 0xFF	; 255
    2708:	c4 91       	lpm	r28, Z
    270a:	cc 23       	and	r28, r28
    270c:	c1 f0       	breq	.+48     	; 0x273e <digitalWrite+0x56>
    270e:	16 2f       	mov	r17, r22
    2710:	81 11       	cpse	r24, r1
    2712:	0e 94 0f 13 	call	0x261e	; 0x261e <turnOffPWM>
    2716:	ec 2f       	mov	r30, r28
    2718:	f0 e0       	ldi	r31, 0x00	; 0
    271a:	ee 0f       	add	r30, r30
    271c:	ff 1f       	adc	r31, r31
    271e:	ee 53       	subi	r30, 0x3E	; 62
    2720:	ff 4f       	sbci	r31, 0xFF	; 255
    2722:	a5 91       	lpm	r26, Z+
    2724:	b4 91       	lpm	r27, Z
    2726:	9f b7       	in	r25, 0x3f	; 63
    2728:	f8 94       	cli
    272a:	11 11       	cpse	r17, r1
    272c:	04 c0       	rjmp	.+8      	; 0x2736 <digitalWrite+0x4e>
    272e:	8c 91       	ld	r24, X
    2730:	d0 95       	com	r29
    2732:	d8 23       	and	r29, r24
    2734:	02 c0       	rjmp	.+4      	; 0x273a <digitalWrite+0x52>
    2736:	ec 91       	ld	r30, X
    2738:	de 2b       	or	r29, r30
    273a:	dc 93       	st	X, r29
    273c:	9f bf       	out	0x3f, r25	; 63
    273e:	df 91       	pop	r29
    2740:	cf 91       	pop	r28
    2742:	1f 91       	pop	r17
    2744:	08 95       	ret

00002746 <_Z3maplllll>:
    2746:	4f 92       	push	r4
    2748:	5f 92       	push	r5
    274a:	6f 92       	push	r6
    274c:	7f 92       	push	r7
    274e:	af 92       	push	r10
    2750:	bf 92       	push	r11
    2752:	cf 92       	push	r12
    2754:	df 92       	push	r13
    2756:	ef 92       	push	r14
    2758:	ff 92       	push	r15
    275a:	0f 93       	push	r16
    275c:	1f 93       	push	r17
    275e:	cf 93       	push	r28
    2760:	df 93       	push	r29
    2762:	cd b7       	in	r28, 0x3d	; 61
    2764:	de b7       	in	r29, 0x3e	; 62
    2766:	29 01       	movw	r4, r18
    2768:	3a 01       	movw	r6, r20
    276a:	9b 01       	movw	r18, r22
    276c:	ac 01       	movw	r20, r24
    276e:	24 19       	sub	r18, r4
    2770:	35 09       	sbc	r19, r5
    2772:	46 09       	sbc	r20, r6
    2774:	57 09       	sbc	r21, r7
    2776:	89 89       	ldd	r24, Y+17	; 0x11
    2778:	9a 89       	ldd	r25, Y+18	; 0x12
    277a:	ab 89       	ldd	r26, Y+19	; 0x13
    277c:	bc 89       	ldd	r27, Y+20	; 0x14
    277e:	bc 01       	movw	r22, r24
    2780:	cd 01       	movw	r24, r26
    2782:	6a 19       	sub	r22, r10
    2784:	7b 09       	sbc	r23, r11
    2786:	8c 09       	sbc	r24, r12
    2788:	9d 09       	sbc	r25, r13
    278a:	0e 94 97 22 	call	0x452e	; 0x452e <__mulsi3>
    278e:	a8 01       	movw	r20, r16
    2790:	97 01       	movw	r18, r14
    2792:	24 19       	sub	r18, r4
    2794:	35 09       	sbc	r19, r5
    2796:	46 09       	sbc	r20, r6
    2798:	57 09       	sbc	r21, r7
    279a:	0e 94 c9 22 	call	0x4592	; 0x4592 <__divmodsi4>
    279e:	ca 01       	movw	r24, r20
    27a0:	b9 01       	movw	r22, r18
    27a2:	6a 0d       	add	r22, r10
    27a4:	7b 1d       	adc	r23, r11
    27a6:	8c 1d       	adc	r24, r12
    27a8:	9d 1d       	adc	r25, r13
    27aa:	df 91       	pop	r29
    27ac:	cf 91       	pop	r28
    27ae:	1f 91       	pop	r17
    27b0:	0f 91       	pop	r16
    27b2:	ff 90       	pop	r15
    27b4:	ef 90       	pop	r14
    27b6:	df 90       	pop	r13
    27b8:	cf 90       	pop	r12
    27ba:	bf 90       	pop	r11
    27bc:	af 90       	pop	r10
    27be:	7f 90       	pop	r7
    27c0:	6f 90       	pop	r6
    27c2:	5f 90       	pop	r5
    27c4:	4f 90       	pop	r4
    27c6:	08 95       	ret

000027c8 <_ZN12Adafruit_GFX9writeLineEiiiij>:
    27c8:	2f 92       	push	r2
    27ca:	3f 92       	push	r3
    27cc:	4f 92       	push	r4
    27ce:	5f 92       	push	r5
    27d0:	6f 92       	push	r6
    27d2:	7f 92       	push	r7
    27d4:	8f 92       	push	r8
    27d6:	9f 92       	push	r9
    27d8:	af 92       	push	r10
    27da:	bf 92       	push	r11
    27dc:	cf 92       	push	r12
    27de:	df 92       	push	r13
    27e0:	ef 92       	push	r14
    27e2:	ff 92       	push	r15
    27e4:	0f 93       	push	r16
    27e6:	1f 93       	push	r17
    27e8:	cf 93       	push	r28
    27ea:	df 93       	push	r29
    27ec:	00 d0       	rcall	.+0      	; 0x27ee <_ZN12Adafruit_GFX9writeLineEiiiij+0x26>
    27ee:	00 d0       	rcall	.+0      	; 0x27f0 <_ZN12Adafruit_GFX9writeLineEiiiij+0x28>
    27f0:	00 d0       	rcall	.+0      	; 0x27f2 <_ZN12Adafruit_GFX9writeLineEiiiij+0x2a>
    27f2:	cd b7       	in	r28, 0x3d	; 61
    27f4:	de b7       	in	r29, 0x3e	; 62
    27f6:	2c 01       	movw	r4, r24
    27f8:	7e 83       	std	Y+6, r23	; 0x06
    27fa:	6d 83       	std	Y+5, r22	; 0x05
    27fc:	6a 01       	movw	r12, r20
    27fe:	59 01       	movw	r10, r18
    2800:	c8 01       	movw	r24, r16
    2802:	fc 82       	std	Y+4, r15	; 0x04
    2804:	eb 82       	std	Y+3, r14	; 0x03
    2806:	48 01       	movw	r8, r16
    2808:	84 1a       	sub	r8, r20
    280a:	95 0a       	sbc	r9, r21
    280c:	97 fe       	sbrs	r9, 7
    280e:	03 c0       	rjmp	.+6      	; 0x2816 <_ZN12Adafruit_GFX9writeLineEiiiij+0x4e>
    2810:	91 94       	neg	r9
    2812:	81 94       	neg	r8
    2814:	91 08       	sbc	r9, r1
    2816:	35 01       	movw	r6, r10
    2818:	2d 81       	ldd	r18, Y+5	; 0x05
    281a:	3e 81       	ldd	r19, Y+6	; 0x06
    281c:	62 1a       	sub	r6, r18
    281e:	73 0a       	sbc	r7, r19
    2820:	77 fe       	sbrs	r7, 7
    2822:	03 c0       	rjmp	.+6      	; 0x282a <_ZN12Adafruit_GFX9writeLineEiiiij+0x62>
    2824:	71 94       	neg	r7
    2826:	61 94       	neg	r6
    2828:	71 08       	sbc	r7, r1
    282a:	68 14       	cp	r6, r8
    282c:	79 04       	cpc	r7, r9
    282e:	5c f4       	brge	.+22     	; 0x2846 <_ZN12Adafruit_GFX9writeLineEiiiij+0x7e>
    2830:	3a 2d       	mov	r19, r10
    2832:	2b 2d       	mov	r18, r11
    2834:	5c 01       	movw	r10, r24
    2836:	83 2f       	mov	r24, r19
    2838:	92 2f       	mov	r25, r18
    283a:	3d 81       	ldd	r19, Y+5	; 0x05
    283c:	2e 81       	ldd	r18, Y+6	; 0x06
    283e:	de 82       	std	Y+6, r13	; 0x06
    2840:	cd 82       	std	Y+5, r12	; 0x05
    2842:	c3 2e       	mov	r12, r19
    2844:	d2 2e       	mov	r13, r18
    2846:	ad 81       	ldd	r26, Y+5	; 0x05
    2848:	be 81       	ldd	r27, Y+6	; 0x06
    284a:	aa 16       	cp	r10, r26
    284c:	bb 06       	cpc	r11, r27
    284e:	5c f4       	brge	.+22     	; 0x2866 <_ZN12Adafruit_GFX9writeLineEiiiij+0x9e>
    2850:	3c 2d       	mov	r19, r12
    2852:	2d 2d       	mov	r18, r13
    2854:	6c 01       	movw	r12, r24
    2856:	83 2f       	mov	r24, r19
    2858:	92 2f       	mov	r25, r18
    285a:	3d 81       	ldd	r19, Y+5	; 0x05
    285c:	2e 81       	ldd	r18, Y+6	; 0x06
    285e:	be 82       	std	Y+6, r11	; 0x06
    2860:	ad 82       	std	Y+5, r10	; 0x05
    2862:	a3 2e       	mov	r10, r19
    2864:	b2 2e       	mov	r11, r18
    2866:	85 01       	movw	r16, r10
    2868:	2d 81       	ldd	r18, Y+5	; 0x05
    286a:	3e 81       	ldd	r19, Y+6	; 0x06
    286c:	02 1b       	sub	r16, r18
    286e:	13 0b       	sbc	r17, r19
    2870:	1c 01       	movw	r2, r24
    2872:	2c 18       	sub	r2, r12
    2874:	3d 08       	sbc	r3, r13
    2876:	37 fe       	sbrs	r3, 7
    2878:	03 c0       	rjmp	.+6      	; 0x2880 <_ZN12Adafruit_GFX9writeLineEiiiij+0xb8>
    287a:	31 94       	neg	r3
    287c:	21 94       	neg	r2
    287e:	31 08       	sbc	r3, r1
    2880:	78 01       	movw	r14, r16
    2882:	17 ff       	sbrs	r17, 7
    2884:	03 c0       	rjmp	.+6      	; 0x288c <_ZN12Adafruit_GFX9writeLineEiiiij+0xc4>
    2886:	3f ef       	ldi	r19, 0xFF	; 255
    2888:	e3 1a       	sub	r14, r19
    288a:	f3 0a       	sbc	r15, r19
    288c:	f5 94       	asr	r15
    288e:	e7 94       	ror	r14
    2890:	c8 16       	cp	r12, r24
    2892:	d9 06       	cpc	r13, r25
    2894:	2c f0       	brlt	.+10     	; 0x28a0 <_ZN12Adafruit_GFX9writeLineEiiiij+0xd8>
    2896:	8f ef       	ldi	r24, 0xFF	; 255
    2898:	9f ef       	ldi	r25, 0xFF	; 255
    289a:	9a 83       	std	Y+2, r25	; 0x02
    289c:	89 83       	std	Y+1, r24	; 0x01
    289e:	04 c0       	rjmp	.+8      	; 0x28a8 <_ZN12Adafruit_GFX9writeLineEiiiij+0xe0>
    28a0:	a1 e0       	ldi	r26, 0x01	; 1
    28a2:	b0 e0       	ldi	r27, 0x00	; 0
    28a4:	ba 83       	std	Y+2, r27	; 0x02
    28a6:	a9 83       	std	Y+1, r26	; 0x01
    28a8:	2d 81       	ldd	r18, Y+5	; 0x05
    28aa:	3e 81       	ldd	r19, Y+6	; 0x06
    28ac:	a2 16       	cp	r10, r18
    28ae:	b3 06       	cpc	r11, r19
    28b0:	24 f1       	brlt	.+72     	; 0x28fa <_ZN12Adafruit_GFX9writeLineEiiiij+0x132>
    28b2:	d2 01       	movw	r26, r4
    28b4:	ed 91       	ld	r30, X+
    28b6:	fc 91       	ld	r31, X
    28b8:	04 84       	ldd	r0, Z+12	; 0x0c
    28ba:	f5 85       	ldd	r31, Z+13	; 0x0d
    28bc:	e0 2d       	mov	r30, r0
    28be:	2b 81       	ldd	r18, Y+3	; 0x03
    28c0:	3c 81       	ldd	r19, Y+4	; 0x04
    28c2:	68 14       	cp	r6, r8
    28c4:	79 04       	cpc	r7, r9
    28c6:	24 f4       	brge	.+8      	; 0x28d0 <_ZN12Adafruit_GFX9writeLineEiiiij+0x108>
    28c8:	4d 81       	ldd	r20, Y+5	; 0x05
    28ca:	5e 81       	ldd	r21, Y+6	; 0x06
    28cc:	b6 01       	movw	r22, r12
    28ce:	03 c0       	rjmp	.+6      	; 0x28d6 <_ZN12Adafruit_GFX9writeLineEiiiij+0x10e>
    28d0:	a6 01       	movw	r20, r12
    28d2:	6d 81       	ldd	r22, Y+5	; 0x05
    28d4:	7e 81       	ldd	r23, Y+6	; 0x06
    28d6:	c2 01       	movw	r24, r4
    28d8:	09 95       	icall
    28da:	e2 18       	sub	r14, r2
    28dc:	f3 08       	sbc	r15, r3
    28de:	f7 fe       	sbrs	r15, 7
    28e0:	06 c0       	rjmp	.+12     	; 0x28ee <_ZN12Adafruit_GFX9writeLineEiiiij+0x126>
    28e2:	29 81       	ldd	r18, Y+1	; 0x01
    28e4:	3a 81       	ldd	r19, Y+2	; 0x02
    28e6:	c2 0e       	add	r12, r18
    28e8:	d3 1e       	adc	r13, r19
    28ea:	e0 0e       	add	r14, r16
    28ec:	f1 1e       	adc	r15, r17
    28ee:	8d 81       	ldd	r24, Y+5	; 0x05
    28f0:	9e 81       	ldd	r25, Y+6	; 0x06
    28f2:	01 96       	adiw	r24, 0x01	; 1
    28f4:	9e 83       	std	Y+6, r25	; 0x06
    28f6:	8d 83       	std	Y+5, r24	; 0x05
    28f8:	d7 cf       	rjmp	.-82     	; 0x28a8 <_ZN12Adafruit_GFX9writeLineEiiiij+0xe0>
    28fa:	26 96       	adiw	r28, 0x06	; 6
    28fc:	0f b6       	in	r0, 0x3f	; 63
    28fe:	f8 94       	cli
    2900:	de bf       	out	0x3e, r29	; 62
    2902:	0f be       	out	0x3f, r0	; 63
    2904:	cd bf       	out	0x3d, r28	; 61
    2906:	df 91       	pop	r29
    2908:	cf 91       	pop	r28
    290a:	1f 91       	pop	r17
    290c:	0f 91       	pop	r16
    290e:	ff 90       	pop	r15
    2910:	ef 90       	pop	r14
    2912:	df 90       	pop	r13
    2914:	cf 90       	pop	r12
    2916:	bf 90       	pop	r11
    2918:	af 90       	pop	r10
    291a:	9f 90       	pop	r9
    291c:	8f 90       	pop	r8
    291e:	7f 90       	pop	r7
    2920:	6f 90       	pop	r6
    2922:	5f 90       	pop	r5
    2924:	4f 90       	pop	r4
    2926:	3f 90       	pop	r3
    2928:	2f 90       	pop	r2
    292a:	08 95       	ret

0000292c <_ZN12Adafruit_GFX10writePixelEiij>:
    292c:	dc 01       	movw	r26, r24
    292e:	ed 91       	ld	r30, X+
    2930:	fc 91       	ld	r31, X
    2932:	00 84       	ldd	r0, Z+8	; 0x08
    2934:	f1 85       	ldd	r31, Z+9	; 0x09
    2936:	e0 2d       	mov	r30, r0
    2938:	09 94       	ijmp

0000293a <_ZN12Adafruit_GFX14writeFastVLineEiiij>:
    293a:	0f 93       	push	r16
    293c:	1f 93       	push	r17
    293e:	dc 01       	movw	r26, r24
    2940:	ed 91       	ld	r30, X+
    2942:	fc 91       	ld	r31, X
    2944:	04 8c       	ldd	r0, Z+28	; 0x1c
    2946:	f5 8d       	ldd	r31, Z+29	; 0x1d
    2948:	e0 2d       	mov	r30, r0
    294a:	09 95       	icall
    294c:	1f 91       	pop	r17
    294e:	0f 91       	pop	r16
    2950:	08 95       	ret

00002952 <_ZN12Adafruit_GFX14writeFastHLineEiiij>:
    2952:	0f 93       	push	r16
    2954:	1f 93       	push	r17
    2956:	dc 01       	movw	r26, r24
    2958:	ed 91       	ld	r30, X+
    295a:	fc 91       	ld	r31, X
    295c:	06 8c       	ldd	r0, Z+30	; 0x1e
    295e:	f7 8d       	ldd	r31, Z+31	; 0x1f
    2960:	e0 2d       	mov	r30, r0
    2962:	09 95       	icall
    2964:	1f 91       	pop	r17
    2966:	0f 91       	pop	r16
    2968:	08 95       	ret

0000296a <_ZN12Adafruit_GFX13writeFillRectEiiiij>:
    296a:	ef 92       	push	r14
    296c:	ff 92       	push	r15
    296e:	0f 93       	push	r16
    2970:	1f 93       	push	r17
    2972:	dc 01       	movw	r26, r24
    2974:	ed 91       	ld	r30, X+
    2976:	fc 91       	ld	r31, X
    2978:	00 a0       	ldd	r0, Z+32	; 0x20
    297a:	f1 a1       	ldd	r31, Z+33	; 0x21
    297c:	e0 2d       	mov	r30, r0
    297e:	09 95       	icall
    2980:	1f 91       	pop	r17
    2982:	0f 91       	pop	r16
    2984:	ff 90       	pop	r15
    2986:	ef 90       	pop	r14
    2988:	08 95       	ret

0000298a <_ZN12Adafruit_GFX10startWriteEv>:
    298a:	08 95       	ret

0000298c <_ZN12Adafruit_GFX13drawFastVLineEiiij>:
    298c:	8f 92       	push	r8
    298e:	9f 92       	push	r9
    2990:	af 92       	push	r10
    2992:	bf 92       	push	r11
    2994:	cf 92       	push	r12
    2996:	df 92       	push	r13
    2998:	ef 92       	push	r14
    299a:	ff 92       	push	r15
    299c:	0f 93       	push	r16
    299e:	1f 93       	push	r17
    29a0:	cf 93       	push	r28
    29a2:	df 93       	push	r29
    29a4:	ec 01       	movw	r28, r24
    29a6:	5b 01       	movw	r10, r22
    29a8:	4a 01       	movw	r8, r20
    29aa:	69 01       	movw	r12, r18
    29ac:	78 01       	movw	r14, r16
    29ae:	e8 81       	ld	r30, Y
    29b0:	f9 81       	ldd	r31, Y+1	; 0x01
    29b2:	02 84       	ldd	r0, Z+10	; 0x0a
    29b4:	f3 85       	ldd	r31, Z+11	; 0x0b
    29b6:	e0 2d       	mov	r30, r0
    29b8:	09 95       	icall
    29ba:	c8 0c       	add	r12, r8
    29bc:	d9 1c       	adc	r13, r9
    29be:	86 01       	movw	r16, r12
    29c0:	01 50       	subi	r16, 0x01	; 1
    29c2:	11 09       	sbc	r17, r1
    29c4:	e8 81       	ld	r30, Y
    29c6:	f9 81       	ldd	r31, Y+1	; 0x01
    29c8:	04 88       	ldd	r0, Z+20	; 0x14
    29ca:	f5 89       	ldd	r31, Z+21	; 0x15
    29cc:	e0 2d       	mov	r30, r0
    29ce:	95 01       	movw	r18, r10
    29d0:	a4 01       	movw	r20, r8
    29d2:	b5 01       	movw	r22, r10
    29d4:	ce 01       	movw	r24, r28
    29d6:	09 95       	icall
    29d8:	e8 81       	ld	r30, Y
    29da:	f9 81       	ldd	r31, Y+1	; 0x01
    29dc:	06 88       	ldd	r0, Z+22	; 0x16
    29de:	f7 89       	ldd	r31, Z+23	; 0x17
    29e0:	e0 2d       	mov	r30, r0
    29e2:	ce 01       	movw	r24, r28
    29e4:	df 91       	pop	r29
    29e6:	cf 91       	pop	r28
    29e8:	1f 91       	pop	r17
    29ea:	0f 91       	pop	r16
    29ec:	ff 90       	pop	r15
    29ee:	ef 90       	pop	r14
    29f0:	df 90       	pop	r13
    29f2:	cf 90       	pop	r12
    29f4:	bf 90       	pop	r11
    29f6:	af 90       	pop	r10
    29f8:	9f 90       	pop	r9
    29fa:	8f 90       	pop	r8
    29fc:	09 94       	ijmp

000029fe <_ZN12Adafruit_GFX13drawFastHLineEiiij>:
    29fe:	8f 92       	push	r8
    2a00:	9f 92       	push	r9
    2a02:	af 92       	push	r10
    2a04:	bf 92       	push	r11
    2a06:	cf 92       	push	r12
    2a08:	df 92       	push	r13
    2a0a:	ef 92       	push	r14
    2a0c:	ff 92       	push	r15
    2a0e:	0f 93       	push	r16
    2a10:	1f 93       	push	r17
    2a12:	cf 93       	push	r28
    2a14:	df 93       	push	r29
    2a16:	ec 01       	movw	r28, r24
    2a18:	5b 01       	movw	r10, r22
    2a1a:	4a 01       	movw	r8, r20
    2a1c:	69 01       	movw	r12, r18
    2a1e:	e8 81       	ld	r30, Y
    2a20:	f9 81       	ldd	r31, Y+1	; 0x01
    2a22:	02 84       	ldd	r0, Z+10	; 0x0a
    2a24:	f3 85       	ldd	r31, Z+11	; 0x0b
    2a26:	e0 2d       	mov	r30, r0
    2a28:	09 95       	icall
    2a2a:	95 01       	movw	r18, r10
    2a2c:	2c 0d       	add	r18, r12
    2a2e:	3d 1d       	adc	r19, r13
    2a30:	21 50       	subi	r18, 0x01	; 1
    2a32:	31 09       	sbc	r19, r1
    2a34:	e8 81       	ld	r30, Y
    2a36:	f9 81       	ldd	r31, Y+1	; 0x01
    2a38:	04 88       	ldd	r0, Z+20	; 0x14
    2a3a:	f5 89       	ldd	r31, Z+21	; 0x15
    2a3c:	e0 2d       	mov	r30, r0
    2a3e:	78 01       	movw	r14, r16
    2a40:	84 01       	movw	r16, r8
    2a42:	a4 01       	movw	r20, r8
    2a44:	b5 01       	movw	r22, r10
    2a46:	ce 01       	movw	r24, r28
    2a48:	09 95       	icall
    2a4a:	e8 81       	ld	r30, Y
    2a4c:	f9 81       	ldd	r31, Y+1	; 0x01
    2a4e:	06 88       	ldd	r0, Z+22	; 0x16
    2a50:	f7 89       	ldd	r31, Z+23	; 0x17
    2a52:	e0 2d       	mov	r30, r0
    2a54:	ce 01       	movw	r24, r28
    2a56:	df 91       	pop	r29
    2a58:	cf 91       	pop	r28
    2a5a:	1f 91       	pop	r17
    2a5c:	0f 91       	pop	r16
    2a5e:	ff 90       	pop	r15
    2a60:	ef 90       	pop	r14
    2a62:	df 90       	pop	r13
    2a64:	cf 90       	pop	r12
    2a66:	bf 90       	pop	r11
    2a68:	af 90       	pop	r10
    2a6a:	9f 90       	pop	r9
    2a6c:	8f 90       	pop	r8
    2a6e:	09 94       	ijmp

00002a70 <_ZN12Adafruit_GFX8fillRectEiiiij>:
    2a70:	4f 92       	push	r4
    2a72:	5f 92       	push	r5
    2a74:	6f 92       	push	r6
    2a76:	7f 92       	push	r7
    2a78:	8f 92       	push	r8
    2a7a:	9f 92       	push	r9
    2a7c:	af 92       	push	r10
    2a7e:	bf 92       	push	r11
    2a80:	cf 92       	push	r12
    2a82:	df 92       	push	r13
    2a84:	ef 92       	push	r14
    2a86:	ff 92       	push	r15
    2a88:	0f 93       	push	r16
    2a8a:	1f 93       	push	r17
    2a8c:	cf 93       	push	r28
    2a8e:	df 93       	push	r29
    2a90:	6c 01       	movw	r12, r24
    2a92:	2b 01       	movw	r4, r22
    2a94:	5a 01       	movw	r10, r20
    2a96:	39 01       	movw	r6, r18
    2a98:	48 01       	movw	r8, r16
    2a9a:	dc 01       	movw	r26, r24
    2a9c:	ed 91       	ld	r30, X+
    2a9e:	fc 91       	ld	r31, X
    2aa0:	02 84       	ldd	r0, Z+10	; 0x0a
    2aa2:	f3 85       	ldd	r31, Z+11	; 0x0b
    2aa4:	e0 2d       	mov	r30, r0
    2aa6:	09 95       	icall
    2aa8:	e2 01       	movw	r28, r4
    2aaa:	64 0c       	add	r6, r4
    2aac:	75 1c       	adc	r7, r5
    2aae:	d6 01       	movw	r26, r12
    2ab0:	ed 91       	ld	r30, X+
    2ab2:	fc 91       	ld	r31, X
    2ab4:	c6 15       	cp	r28, r6
    2ab6:	d7 05       	cpc	r29, r7
    2ab8:	5c f4       	brge	.+22     	; 0x2ad0 <_ZN12Adafruit_GFX8fillRectEiiiij+0x60>
    2aba:	00 88       	ldd	r0, Z+16	; 0x10
    2abc:	f1 89       	ldd	r31, Z+17	; 0x11
    2abe:	e0 2d       	mov	r30, r0
    2ac0:	87 01       	movw	r16, r14
    2ac2:	94 01       	movw	r18, r8
    2ac4:	a5 01       	movw	r20, r10
    2ac6:	be 01       	movw	r22, r28
    2ac8:	c6 01       	movw	r24, r12
    2aca:	09 95       	icall
    2acc:	21 96       	adiw	r28, 0x01	; 1
    2ace:	ef cf       	rjmp	.-34     	; 0x2aae <_ZN12Adafruit_GFX8fillRectEiiiij+0x3e>
    2ad0:	06 88       	ldd	r0, Z+22	; 0x16
    2ad2:	f7 89       	ldd	r31, Z+23	; 0x17
    2ad4:	e0 2d       	mov	r30, r0
    2ad6:	c6 01       	movw	r24, r12
    2ad8:	df 91       	pop	r29
    2ada:	cf 91       	pop	r28
    2adc:	1f 91       	pop	r17
    2ade:	0f 91       	pop	r16
    2ae0:	ff 90       	pop	r15
    2ae2:	ef 90       	pop	r14
    2ae4:	df 90       	pop	r13
    2ae6:	cf 90       	pop	r12
    2ae8:	bf 90       	pop	r11
    2aea:	af 90       	pop	r10
    2aec:	9f 90       	pop	r9
    2aee:	8f 90       	pop	r8
    2af0:	7f 90       	pop	r7
    2af2:	6f 90       	pop	r6
    2af4:	5f 90       	pop	r5
    2af6:	4f 90       	pop	r4
    2af8:	09 94       	ijmp

00002afa <_ZN12Adafruit_GFX10fillScreenEj>:
    2afa:	ef 92       	push	r14
    2afc:	ff 92       	push	r15
    2afe:	0f 93       	push	r16
    2b00:	1f 93       	push	r17
    2b02:	dc 01       	movw	r26, r24
    2b04:	1a 96       	adiw	r26, 0x0a	; 10
    2b06:	0d 91       	ld	r16, X+
    2b08:	1c 91       	ld	r17, X
    2b0a:	1b 97       	sbiw	r26, 0x0b	; 11
    2b0c:	18 96       	adiw	r26, 0x08	; 8
    2b0e:	2d 91       	ld	r18, X+
    2b10:	3c 91       	ld	r19, X
    2b12:	19 97       	sbiw	r26, 0x09	; 9
    2b14:	ed 91       	ld	r30, X+
    2b16:	fc 91       	ld	r31, X
    2b18:	00 a0       	ldd	r0, Z+32	; 0x20
    2b1a:	f1 a1       	ldd	r31, Z+33	; 0x21
    2b1c:	e0 2d       	mov	r30, r0
    2b1e:	7b 01       	movw	r14, r22
    2b20:	40 e0       	ldi	r20, 0x00	; 0
    2b22:	50 e0       	ldi	r21, 0x00	; 0
    2b24:	60 e0       	ldi	r22, 0x00	; 0
    2b26:	70 e0       	ldi	r23, 0x00	; 0
    2b28:	09 95       	icall
    2b2a:	1f 91       	pop	r17
    2b2c:	0f 91       	pop	r16
    2b2e:	ff 90       	pop	r15
    2b30:	ef 90       	pop	r14
    2b32:	08 95       	ret

00002b34 <_ZN12Adafruit_GFX8drawLineEiiiij>:
    2b34:	8f 92       	push	r8
    2b36:	9f 92       	push	r9
    2b38:	af 92       	push	r10
    2b3a:	bf 92       	push	r11
    2b3c:	cf 92       	push	r12
    2b3e:	df 92       	push	r13
    2b40:	ef 92       	push	r14
    2b42:	ff 92       	push	r15
    2b44:	0f 93       	push	r16
    2b46:	1f 93       	push	r17
    2b48:	cf 93       	push	r28
    2b4a:	df 93       	push	r29
    2b4c:	4c 01       	movw	r8, r24
    2b4e:	6b 01       	movw	r12, r22
    2b50:	5a 01       	movw	r10, r20
    2b52:	e9 01       	movw	r28, r18
    2b54:	dc 01       	movw	r26, r24
    2b56:	ed 91       	ld	r30, X+
    2b58:	fc 91       	ld	r31, X
    2b5a:	62 17       	cp	r22, r18
    2b5c:	73 07       	cpc	r23, r19
    2b5e:	81 f4       	brne	.+32     	; 0x2b80 <_ZN12Adafruit_GFX8drawLineEiiiij+0x4c>
    2b60:	04 17       	cp	r16, r20
    2b62:	15 07       	cpc	r17, r21
    2b64:	24 f4       	brge	.+8      	; 0x2b6e <_ZN12Adafruit_GFX8drawLineEiiiij+0x3a>
    2b66:	8b 2d       	mov	r24, r11
    2b68:	58 01       	movw	r10, r16
    2b6a:	04 2f       	mov	r16, r20
    2b6c:	18 2f       	mov	r17, r24
    2b6e:	0a 19       	sub	r16, r10
    2b70:	1b 09       	sbc	r17, r11
    2b72:	98 01       	movw	r18, r16
    2b74:	2f 5f       	subi	r18, 0xFF	; 255
    2b76:	3f 4f       	sbci	r19, 0xFF	; 255
    2b78:	04 8c       	ldd	r0, Z+28	; 0x1c
    2b7a:	f5 8d       	ldd	r31, Z+29	; 0x1d
    2b7c:	e0 2d       	mov	r30, r0
    2b7e:	12 c0       	rjmp	.+36     	; 0x2ba4 <_ZN12Adafruit_GFX8drawLineEiiiij+0x70>
    2b80:	40 17       	cp	r20, r16
    2b82:	51 07       	cpc	r21, r17
    2b84:	09 f5       	brne	.+66     	; 0x2bc8 <_ZN12Adafruit_GFX8drawLineEiiiij+0x94>
    2b86:	26 17       	cp	r18, r22
    2b88:	37 07       	cpc	r19, r23
    2b8a:	24 f4       	brge	.+8      	; 0x2b94 <_ZN12Adafruit_GFX8drawLineEiiiij+0x60>
    2b8c:	8d 2d       	mov	r24, r13
    2b8e:	69 01       	movw	r12, r18
    2b90:	c6 2f       	mov	r28, r22
    2b92:	d8 2f       	mov	r29, r24
    2b94:	9e 01       	movw	r18, r28
    2b96:	2c 19       	sub	r18, r12
    2b98:	3d 09       	sbc	r19, r13
    2b9a:	2f 5f       	subi	r18, 0xFF	; 255
    2b9c:	3f 4f       	sbci	r19, 0xFF	; 255
    2b9e:	06 8c       	ldd	r0, Z+30	; 0x1e
    2ba0:	f7 8d       	ldd	r31, Z+31	; 0x1f
    2ba2:	e0 2d       	mov	r30, r0
    2ba4:	87 01       	movw	r16, r14
    2ba6:	a5 01       	movw	r20, r10
    2ba8:	b6 01       	movw	r22, r12
    2baa:	c4 01       	movw	r24, r8
    2bac:	09 95       	icall
    2bae:	df 91       	pop	r29
    2bb0:	cf 91       	pop	r28
    2bb2:	1f 91       	pop	r17
    2bb4:	0f 91       	pop	r16
    2bb6:	ff 90       	pop	r15
    2bb8:	ef 90       	pop	r14
    2bba:	df 90       	pop	r13
    2bbc:	cf 90       	pop	r12
    2bbe:	bf 90       	pop	r11
    2bc0:	af 90       	pop	r10
    2bc2:	9f 90       	pop	r9
    2bc4:	8f 90       	pop	r8
    2bc6:	08 95       	ret
    2bc8:	02 84       	ldd	r0, Z+10	; 0x0a
    2bca:	f3 85       	ldd	r31, Z+11	; 0x0b
    2bcc:	e0 2d       	mov	r30, r0
    2bce:	09 95       	icall
    2bd0:	d4 01       	movw	r26, r8
    2bd2:	ed 91       	ld	r30, X+
    2bd4:	fc 91       	ld	r31, X
    2bd6:	04 88       	ldd	r0, Z+20	; 0x14
    2bd8:	f5 89       	ldd	r31, Z+21	; 0x15
    2bda:	e0 2d       	mov	r30, r0
    2bdc:	9e 01       	movw	r18, r28
    2bde:	a5 01       	movw	r20, r10
    2be0:	b6 01       	movw	r22, r12
    2be2:	c4 01       	movw	r24, r8
    2be4:	09 95       	icall
    2be6:	d4 01       	movw	r26, r8
    2be8:	ed 91       	ld	r30, X+
    2bea:	fc 91       	ld	r31, X
    2bec:	06 88       	ldd	r0, Z+22	; 0x16
    2bee:	f7 89       	ldd	r31, Z+23	; 0x17
    2bf0:	e0 2d       	mov	r30, r0
    2bf2:	c4 01       	movw	r24, r8
    2bf4:	df 91       	pop	r29
    2bf6:	cf 91       	pop	r28
    2bf8:	1f 91       	pop	r17
    2bfa:	0f 91       	pop	r16
    2bfc:	ff 90       	pop	r15
    2bfe:	ef 90       	pop	r14
    2c00:	df 90       	pop	r13
    2c02:	cf 90       	pop	r12
    2c04:	bf 90       	pop	r11
    2c06:	af 90       	pop	r10
    2c08:	9f 90       	pop	r9
    2c0a:	8f 90       	pop	r8
    2c0c:	09 94       	ijmp

00002c0e <_ZN12Adafruit_GFX8drawRectEiiiij>:
    2c0e:	6f 92       	push	r6
    2c10:	7f 92       	push	r7
    2c12:	8f 92       	push	r8
    2c14:	9f 92       	push	r9
    2c16:	af 92       	push	r10
    2c18:	bf 92       	push	r11
    2c1a:	cf 92       	push	r12
    2c1c:	df 92       	push	r13
    2c1e:	ef 92       	push	r14
    2c20:	ff 92       	push	r15
    2c22:	0f 93       	push	r16
    2c24:	1f 93       	push	r17
    2c26:	cf 93       	push	r28
    2c28:	df 93       	push	r29
    2c2a:	ec 01       	movw	r28, r24
    2c2c:	4b 01       	movw	r8, r22
    2c2e:	5a 01       	movw	r10, r20
    2c30:	69 01       	movw	r12, r18
    2c32:	38 01       	movw	r6, r16
    2c34:	e8 81       	ld	r30, Y
    2c36:	f9 81       	ldd	r31, Y+1	; 0x01
    2c38:	02 84       	ldd	r0, Z+10	; 0x0a
    2c3a:	f3 85       	ldd	r31, Z+11	; 0x0b
    2c3c:	e0 2d       	mov	r30, r0
    2c3e:	09 95       	icall
    2c40:	e8 81       	ld	r30, Y
    2c42:	f9 81       	ldd	r31, Y+1	; 0x01
    2c44:	02 88       	ldd	r0, Z+18	; 0x12
    2c46:	f3 89       	ldd	r31, Z+19	; 0x13
    2c48:	e0 2d       	mov	r30, r0
    2c4a:	87 01       	movw	r16, r14
    2c4c:	96 01       	movw	r18, r12
    2c4e:	a5 01       	movw	r20, r10
    2c50:	b4 01       	movw	r22, r8
    2c52:	ce 01       	movw	r24, r28
    2c54:	09 95       	icall
    2c56:	a5 01       	movw	r20, r10
    2c58:	46 0d       	add	r20, r6
    2c5a:	57 1d       	adc	r21, r7
    2c5c:	41 50       	subi	r20, 0x01	; 1
    2c5e:	51 09       	sbc	r21, r1
    2c60:	e8 81       	ld	r30, Y
    2c62:	f9 81       	ldd	r31, Y+1	; 0x01
    2c64:	02 88       	ldd	r0, Z+18	; 0x12
    2c66:	f3 89       	ldd	r31, Z+19	; 0x13
    2c68:	e0 2d       	mov	r30, r0
    2c6a:	96 01       	movw	r18, r12
    2c6c:	b4 01       	movw	r22, r8
    2c6e:	ce 01       	movw	r24, r28
    2c70:	09 95       	icall
    2c72:	e8 81       	ld	r30, Y
    2c74:	f9 81       	ldd	r31, Y+1	; 0x01
    2c76:	00 88       	ldd	r0, Z+16	; 0x10
    2c78:	f1 89       	ldd	r31, Z+17	; 0x11
    2c7a:	e0 2d       	mov	r30, r0
    2c7c:	93 01       	movw	r18, r6
    2c7e:	a5 01       	movw	r20, r10
    2c80:	b4 01       	movw	r22, r8
    2c82:	ce 01       	movw	r24, r28
    2c84:	09 95       	icall
    2c86:	c8 0c       	add	r12, r8
    2c88:	d9 1c       	adc	r13, r9
    2c8a:	b6 01       	movw	r22, r12
    2c8c:	61 50       	subi	r22, 0x01	; 1
    2c8e:	71 09       	sbc	r23, r1
    2c90:	e8 81       	ld	r30, Y
    2c92:	f9 81       	ldd	r31, Y+1	; 0x01
    2c94:	00 88       	ldd	r0, Z+16	; 0x10
    2c96:	f1 89       	ldd	r31, Z+17	; 0x11
    2c98:	e0 2d       	mov	r30, r0
    2c9a:	93 01       	movw	r18, r6
    2c9c:	a5 01       	movw	r20, r10
    2c9e:	ce 01       	movw	r24, r28
    2ca0:	09 95       	icall
    2ca2:	e8 81       	ld	r30, Y
    2ca4:	f9 81       	ldd	r31, Y+1	; 0x01
    2ca6:	06 88       	ldd	r0, Z+22	; 0x16
    2ca8:	f7 89       	ldd	r31, Z+23	; 0x17
    2caa:	e0 2d       	mov	r30, r0
    2cac:	ce 01       	movw	r24, r28
    2cae:	df 91       	pop	r29
    2cb0:	cf 91       	pop	r28
    2cb2:	1f 91       	pop	r17
    2cb4:	0f 91       	pop	r16
    2cb6:	ff 90       	pop	r15
    2cb8:	ef 90       	pop	r14
    2cba:	df 90       	pop	r13
    2cbc:	cf 90       	pop	r12
    2cbe:	bf 90       	pop	r11
    2cc0:	af 90       	pop	r10
    2cc2:	9f 90       	pop	r9
    2cc4:	8f 90       	pop	r8
    2cc6:	7f 90       	pop	r7
    2cc8:	6f 90       	pop	r6
    2cca:	09 94       	ijmp

00002ccc <_ZN12Adafruit_GFX13invertDisplayEb>:
    2ccc:	08 95       	ret

00002cce <_ZN12Adafruit_GFX11setRotationEh>:
    2cce:	fc 01       	movw	r30, r24
    2cd0:	63 70       	andi	r22, 0x03	; 3
    2cd2:	65 8b       	std	Z+21, r22	; 0x15
    2cd4:	84 81       	ldd	r24, Z+4	; 0x04
    2cd6:	95 81       	ldd	r25, Z+5	; 0x05
    2cd8:	26 81       	ldd	r18, Z+6	; 0x06
    2cda:	37 81       	ldd	r19, Z+7	; 0x07
    2cdc:	61 30       	cpi	r22, 0x01	; 1
    2cde:	39 f0       	breq	.+14     	; 0x2cee <_ZN12Adafruit_GFX11setRotationEh+0x20>
    2ce0:	63 30       	cpi	r22, 0x03	; 3
    2ce2:	29 f0       	breq	.+10     	; 0x2cee <_ZN12Adafruit_GFX11setRotationEh+0x20>
    2ce4:	91 87       	std	Z+9, r25	; 0x09
    2ce6:	80 87       	std	Z+8, r24	; 0x08
    2ce8:	33 87       	std	Z+11, r19	; 0x0b
    2cea:	22 87       	std	Z+10, r18	; 0x0a
    2cec:	08 95       	ret
    2cee:	31 87       	std	Z+9, r19	; 0x09
    2cf0:	20 87       	std	Z+8, r18	; 0x08
    2cf2:	93 87       	std	Z+11, r25	; 0x0b
    2cf4:	82 87       	std	Z+10, r24	; 0x0a
    2cf6:	08 95       	ret

00002cf8 <_ZN12Adafruit_GFXC1Eii>:
    2cf8:	fc 01       	movw	r30, r24
    2cfa:	13 82       	std	Z+3, r1	; 0x03
    2cfc:	12 82       	std	Z+2, r1	; 0x02
    2cfe:	8a e7       	ldi	r24, 0x7A	; 122
    2d00:	93 e0       	ldi	r25, 0x03	; 3
    2d02:	91 83       	std	Z+1, r25	; 0x01
    2d04:	80 83       	st	Z, r24
    2d06:	75 83       	std	Z+5, r23	; 0x05
    2d08:	64 83       	std	Z+4, r22	; 0x04
    2d0a:	57 83       	std	Z+7, r21	; 0x07
    2d0c:	46 83       	std	Z+6, r20	; 0x06
    2d0e:	71 87       	std	Z+9, r23	; 0x09
    2d10:	60 87       	std	Z+8, r22	; 0x08
    2d12:	53 87       	std	Z+11, r21	; 0x0b
    2d14:	42 87       	std	Z+10, r20	; 0x0a
    2d16:	15 8a       	std	Z+21, r1	; 0x15
    2d18:	15 86       	std	Z+13, r1	; 0x0d
    2d1a:	14 86       	std	Z+12, r1	; 0x0c
    2d1c:	17 86       	std	Z+15, r1	; 0x0f
    2d1e:	16 86       	std	Z+14, r1	; 0x0e
    2d20:	81 e0       	ldi	r24, 0x01	; 1
    2d22:	84 8b       	std	Z+20, r24	; 0x14
    2d24:	2f ef       	ldi	r18, 0xFF	; 255
    2d26:	3f ef       	ldi	r19, 0xFF	; 255
    2d28:	33 8b       	std	Z+19, r19	; 0x13
    2d2a:	22 8b       	std	Z+18, r18	; 0x12
    2d2c:	31 8b       	std	Z+17, r19	; 0x11
    2d2e:	20 8b       	std	Z+16, r18	; 0x10
    2d30:	86 8b       	std	Z+22, r24	; 0x16
    2d32:	17 8a       	std	Z+23, r1	; 0x17
    2d34:	11 8e       	std	Z+25, r1	; 0x19
    2d36:	10 8e       	std	Z+24, r1	; 0x18
    2d38:	08 95       	ret

00002d3a <_ZN12Adafruit_GFX8drawCharEiihjjh>:
    2d3a:	2f 92       	push	r2
    2d3c:	3f 92       	push	r3
    2d3e:	4f 92       	push	r4
    2d40:	5f 92       	push	r5
    2d42:	6f 92       	push	r6
    2d44:	7f 92       	push	r7
    2d46:	8f 92       	push	r8
    2d48:	9f 92       	push	r9
    2d4a:	af 92       	push	r10
    2d4c:	bf 92       	push	r11
    2d4e:	cf 92       	push	r12
    2d50:	df 92       	push	r13
    2d52:	ef 92       	push	r14
    2d54:	ff 92       	push	r15
    2d56:	0f 93       	push	r16
    2d58:	1f 93       	push	r17
    2d5a:	cf 93       	push	r28
    2d5c:	df 93       	push	r29
    2d5e:	cd b7       	in	r28, 0x3d	; 61
    2d60:	de b7       	in	r29, 0x3e	; 62
    2d62:	6b 97       	sbiw	r28, 0x1b	; 27
    2d64:	0f b6       	in	r0, 0x3f	; 63
    2d66:	f8 94       	cli
    2d68:	de bf       	out	0x3e, r29	; 62
    2d6a:	0f be       	out	0x3f, r0	; 63
    2d6c:	cd bf       	out	0x3d, r28	; 61
    2d6e:	9b 8f       	std	Y+27, r25	; 0x1b
    2d70:	8a 8f       	std	Y+26, r24	; 0x1a
    2d72:	5b 01       	movw	r10, r22
    2d74:	1a 01       	movw	r2, r20
    2d76:	d2 2e       	mov	r13, r18
    2d78:	1f 83       	std	Y+7, r17	; 0x07
    2d7a:	0e 83       	std	Y+6, r16	; 0x06
    2d7c:	37 01       	movw	r6, r14
    2d7e:	c9 82       	std	Y+1, r12	; 0x01
    2d80:	dc 01       	movw	r26, r24
    2d82:	58 96       	adiw	r26, 0x18	; 24
    2d84:	2d 91       	ld	r18, X+
    2d86:	3c 91       	ld	r19, X
    2d88:	59 97       	sbiw	r26, 0x19	; 25
    2d8a:	21 15       	cp	r18, r1
    2d8c:	31 05       	cpc	r19, r1
    2d8e:	09 f0       	breq	.+2      	; 0x2d92 <_ZN12Adafruit_GFX8drawCharEiihjjh+0x58>
    2d90:	e6 c0       	rjmp	.+460    	; 0x2f5e <_ZN12Adafruit_GFX8drawCharEiihjjh+0x224>
    2d92:	18 96       	adiw	r26, 0x08	; 8
    2d94:	8d 91       	ld	r24, X+
    2d96:	9c 91       	ld	r25, X
    2d98:	19 97       	sbiw	r26, 0x09	; 9
    2d9a:	68 17       	cp	r22, r24
    2d9c:	79 07       	cpc	r23, r25
    2d9e:	0c f0       	brlt	.+2      	; 0x2da2 <_ZN12Adafruit_GFX8drawCharEiihjjh+0x68>
    2da0:	cd c1       	rjmp	.+922    	; 0x313c <_ZN12Adafruit_GFX8drawCharEiihjjh+0x402>
    2da2:	1a 96       	adiw	r26, 0x0a	; 10
    2da4:	8d 91       	ld	r24, X+
    2da6:	9c 91       	ld	r25, X
    2da8:	1b 97       	sbiw	r26, 0x0b	; 11
    2daa:	48 17       	cp	r20, r24
    2dac:	59 07       	cpc	r21, r25
    2dae:	0c f0       	brlt	.+2      	; 0x2db2 <_ZN12Adafruit_GFX8drawCharEiihjjh+0x78>
    2db0:	c5 c1       	rjmp	.+906    	; 0x313c <_ZN12Adafruit_GFX8drawCharEiihjjh+0x402>
    2db2:	8c 2c       	mov	r8, r12
    2db4:	91 2c       	mov	r9, r1
    2db6:	fb 01       	movw	r30, r22
    2db8:	26 e0       	ldi	r18, 0x06	; 6
    2dba:	c2 9e       	mul	r12, r18
    2dbc:	e0 0d       	add	r30, r0
    2dbe:	f1 1d       	adc	r31, r1
    2dc0:	11 24       	eor	r1, r1
    2dc2:	fb 87       	std	Y+11, r31	; 0x0b
    2dc4:	ea 87       	std	Y+10, r30	; 0x0a
    2dc6:	1e 16       	cp	r1, r30
    2dc8:	1f 06       	cpc	r1, r31
    2dca:	0c f0       	brlt	.+2      	; 0x2dce <_ZN12Adafruit_GFX8drawCharEiihjjh+0x94>
    2dcc:	b7 c1       	rjmp	.+878    	; 0x313c <_ZN12Adafruit_GFX8drawCharEiihjjh+0x402>
    2dce:	a4 01       	movw	r20, r8
    2dd0:	83 e0       	ldi	r24, 0x03	; 3
    2dd2:	44 0f       	add	r20, r20
    2dd4:	55 1f       	adc	r21, r21
    2dd6:	8a 95       	dec	r24
    2dd8:	e1 f7       	brne	.-8      	; 0x2dd2 <_ZN12Adafruit_GFX8drawCharEiihjjh+0x98>
    2dda:	5d 87       	std	Y+13, r21	; 0x0d
    2ddc:	4c 87       	std	Y+12, r20	; 0x0c
    2dde:	ca 01       	movw	r24, r20
    2de0:	82 0d       	add	r24, r2
    2de2:	93 1d       	adc	r25, r3
    2de4:	18 16       	cp	r1, r24
    2de6:	19 06       	cpc	r1, r25
    2de8:	0c f0       	brlt	.+2      	; 0x2dec <_ZN12Adafruit_GFX8drawCharEiihjjh+0xb2>
    2dea:	a8 c1       	rjmp	.+848    	; 0x313c <_ZN12Adafruit_GFX8drawCharEiihjjh+0x402>
    2dec:	57 96       	adiw	r26, 0x17	; 23
    2dee:	8c 91       	ld	r24, X
    2df0:	81 11       	cpse	r24, r1
    2df2:	04 c0       	rjmp	.+8      	; 0x2dfc <_ZN12Adafruit_GFX8drawCharEiihjjh+0xc2>
    2df4:	5f ea       	ldi	r21, 0xAF	; 175
    2df6:	5d 15       	cp	r21, r13
    2df8:	08 f4       	brcc	.+2      	; 0x2dfc <_ZN12Adafruit_GFX8drawCharEiihjjh+0xc2>
    2dfa:	d3 94       	inc	r13
    2dfc:	aa 8d       	ldd	r26, Y+26	; 0x1a
    2dfe:	bb 8d       	ldd	r27, Y+27	; 0x1b
    2e00:	ed 91       	ld	r30, X+
    2e02:	fc 91       	ld	r31, X
    2e04:	11 97       	sbiw	r26, 0x01	; 1
    2e06:	02 84       	ldd	r0, Z+10	; 0x0a
    2e08:	f3 85       	ldd	r31, Z+11	; 0x0b
    2e0a:	e0 2d       	mov	r30, r0
    2e0c:	cd 01       	movw	r24, r26
    2e0e:	09 95       	icall
    2e10:	b5 e0       	ldi	r27, 0x05	; 5
    2e12:	db 9e       	mul	r13, r27
    2e14:	c0 01       	movw	r24, r0
    2e16:	11 24       	eor	r1, r1
    2e18:	f5 01       	movw	r30, r10
    2e1a:	35 96       	adiw	r30, 0x05	; 5
    2e1c:	ff 87       	std	Y+15, r31	; 0x0f
    2e1e:	ee 87       	std	Y+14, r30	; 0x0e
    2e20:	25 01       	movw	r4, r10
    2e22:	bb 82       	std	Y+3, r11	; 0x03
    2e24:	aa 82       	std	Y+2, r10	; 0x02
    2e26:	9c 01       	movw	r18, r24
    2e28:	2a 19       	sub	r18, r10
    2e2a:	3b 09       	sbc	r19, r11
    2e2c:	39 8b       	std	Y+17, r19	; 0x11
    2e2e:	28 8b       	std	Y+16, r18	; 0x10
    2e30:	a1 01       	movw	r20, r2
    2e32:	48 5f       	subi	r20, 0xF8	; 248
    2e34:	5f 4f       	sbci	r21, 0xFF	; 255
    2e36:	5b 8b       	std	Y+19, r21	; 0x13
    2e38:	4a 8b       	std	Y+18, r20	; 0x12
    2e3a:	e8 89       	ldd	r30, Y+16	; 0x10
    2e3c:	f9 89       	ldd	r31, Y+17	; 0x11
    2e3e:	e4 0d       	add	r30, r4
    2e40:	f5 1d       	adc	r31, r5
    2e42:	ea 52       	subi	r30, 0x2A	; 42
    2e44:	ff 4f       	sbci	r31, 0xFF	; 255
    2e46:	54 91       	lpm	r21, Z
    2e48:	58 87       	std	Y+8, r21	; 0x08
    2e4a:	3d 82       	std	Y+5, r3	; 0x05
    2e4c:	2c 82       	std	Y+4, r2	; 0x04
    2e4e:	61 01       	movw	r12, r2
    2e50:	88 85       	ldd	r24, Y+8	; 0x08
    2e52:	80 ff       	sbrs	r24, 0
    2e54:	13 c0       	rjmp	.+38     	; 0x2e7c <_ZN12Adafruit_GFX8drawCharEiihjjh+0x142>
    2e56:	aa 8d       	ldd	r26, Y+26	; 0x1a
    2e58:	bb 8d       	ldd	r27, Y+27	; 0x1b
    2e5a:	ed 91       	ld	r30, X+
    2e5c:	fc 91       	ld	r31, X
    2e5e:	b9 81       	ldd	r27, Y+1	; 0x01
    2e60:	b1 30       	cpi	r27, 0x01	; 1
    2e62:	31 f4       	brne	.+12     	; 0x2e70 <_ZN12Adafruit_GFX8drawCharEiihjjh+0x136>
    2e64:	04 84       	ldd	r0, Z+12	; 0x0c
    2e66:	f5 85       	ldd	r31, Z+13	; 0x0d
    2e68:	e0 2d       	mov	r30, r0
    2e6a:	2e 81       	ldd	r18, Y+6	; 0x06
    2e6c:	3f 81       	ldd	r19, Y+7	; 0x07
    2e6e:	16 c0       	rjmp	.+44     	; 0x2e9c <_ZN12Adafruit_GFX8drawCharEiihjjh+0x162>
    2e70:	06 84       	ldd	r0, Z+14	; 0x0e
    2e72:	f7 85       	ldd	r31, Z+15	; 0x0f
    2e74:	e0 2d       	mov	r30, r0
    2e76:	ee 80       	ldd	r14, Y+6	; 0x06
    2e78:	ff 80       	ldd	r15, Y+7	; 0x07
    2e7a:	1a c0       	rjmp	.+52     	; 0x2eb0 <_ZN12Adafruit_GFX8drawCharEiihjjh+0x176>
    2e7c:	ee 81       	ldd	r30, Y+6	; 0x06
    2e7e:	ff 81       	ldd	r31, Y+7	; 0x07
    2e80:	e6 15       	cp	r30, r6
    2e82:	f7 05       	cpc	r31, r7
    2e84:	f1 f0       	breq	.+60     	; 0x2ec2 <_ZN12Adafruit_GFX8drawCharEiihjjh+0x188>
    2e86:	aa 8d       	ldd	r26, Y+26	; 0x1a
    2e88:	bb 8d       	ldd	r27, Y+27	; 0x1b
    2e8a:	ed 91       	ld	r30, X+
    2e8c:	fc 91       	ld	r31, X
    2e8e:	b9 81       	ldd	r27, Y+1	; 0x01
    2e90:	b1 30       	cpi	r27, 0x01	; 1
    2e92:	51 f4       	brne	.+20     	; 0x2ea8 <_ZN12Adafruit_GFX8drawCharEiihjjh+0x16e>
    2e94:	04 84       	ldd	r0, Z+12	; 0x0c
    2e96:	f5 85       	ldd	r31, Z+13	; 0x0d
    2e98:	e0 2d       	mov	r30, r0
    2e9a:	93 01       	movw	r18, r6
    2e9c:	a6 01       	movw	r20, r12
    2e9e:	b2 01       	movw	r22, r4
    2ea0:	8a 8d       	ldd	r24, Y+26	; 0x1a
    2ea2:	9b 8d       	ldd	r25, Y+27	; 0x1b
    2ea4:	09 95       	icall
    2ea6:	0d c0       	rjmp	.+26     	; 0x2ec2 <_ZN12Adafruit_GFX8drawCharEiihjjh+0x188>
    2ea8:	06 84       	ldd	r0, Z+14	; 0x0e
    2eaa:	f7 85       	ldd	r31, Z+15	; 0x0f
    2eac:	e0 2d       	mov	r30, r0
    2eae:	73 01       	movw	r14, r6
    2eb0:	84 01       	movw	r16, r8
    2eb2:	94 01       	movw	r18, r8
    2eb4:	4c 81       	ldd	r20, Y+4	; 0x04
    2eb6:	5d 81       	ldd	r21, Y+5	; 0x05
    2eb8:	6a 81       	ldd	r22, Y+2	; 0x02
    2eba:	7b 81       	ldd	r23, Y+3	; 0x03
    2ebc:	8a 8d       	ldd	r24, Y+26	; 0x1a
    2ebe:	9b 8d       	ldd	r25, Y+27	; 0x1b
    2ec0:	09 95       	icall
    2ec2:	e8 85       	ldd	r30, Y+8	; 0x08
    2ec4:	e6 95       	lsr	r30
    2ec6:	e8 87       	std	Y+8, r30	; 0x08
    2ec8:	2c 81       	ldd	r18, Y+4	; 0x04
    2eca:	3d 81       	ldd	r19, Y+5	; 0x05
    2ecc:	28 0d       	add	r18, r8
    2ece:	39 1d       	adc	r19, r9
    2ed0:	3d 83       	std	Y+5, r19	; 0x05
    2ed2:	2c 83       	std	Y+4, r18	; 0x04
    2ed4:	3f ef       	ldi	r19, 0xFF	; 255
    2ed6:	c3 1a       	sub	r12, r19
    2ed8:	d3 0a       	sbc	r13, r19
    2eda:	4a 89       	ldd	r20, Y+18	; 0x12
    2edc:	5b 89       	ldd	r21, Y+19	; 0x13
    2ede:	c4 16       	cp	r12, r20
    2ee0:	d5 06       	cpc	r13, r21
    2ee2:	09 f0       	breq	.+2      	; 0x2ee6 <_ZN12Adafruit_GFX8drawCharEiihjjh+0x1ac>
    2ee4:	b5 cf       	rjmp	.-150    	; 0x2e50 <_ZN12Adafruit_GFX8drawCharEiihjjh+0x116>
    2ee6:	8a 81       	ldd	r24, Y+2	; 0x02
    2ee8:	9b 81       	ldd	r25, Y+3	; 0x03
    2eea:	88 0d       	add	r24, r8
    2eec:	99 1d       	adc	r25, r9
    2eee:	9b 83       	std	Y+3, r25	; 0x03
    2ef0:	8a 83       	std	Y+2, r24	; 0x02
    2ef2:	9f ef       	ldi	r25, 0xFF	; 255
    2ef4:	49 1a       	sub	r4, r25
    2ef6:	59 0a       	sbc	r5, r25
    2ef8:	ae 85       	ldd	r26, Y+14	; 0x0e
    2efa:	bf 85       	ldd	r27, Y+15	; 0x0f
    2efc:	4a 16       	cp	r4, r26
    2efe:	5b 06       	cpc	r5, r27
    2f00:	09 f0       	breq	.+2      	; 0x2f04 <_ZN12Adafruit_GFX8drawCharEiihjjh+0x1ca>
    2f02:	9b cf       	rjmp	.-202    	; 0x2e3a <_ZN12Adafruit_GFX8drawCharEiihjjh+0x100>
    2f04:	ee 81       	ldd	r30, Y+6	; 0x06
    2f06:	ff 81       	ldd	r31, Y+7	; 0x07
    2f08:	e6 15       	cp	r30, r6
    2f0a:	f7 05       	cpc	r31, r7
    2f0c:	09 f4       	brne	.+2      	; 0x2f10 <_ZN12Adafruit_GFX8drawCharEiihjjh+0x1d6>
    2f0e:	f4 c0       	rjmp	.+488    	; 0x30f8 <_ZN12Adafruit_GFX8drawCharEiihjjh+0x3be>
    2f10:	ea 8d       	ldd	r30, Y+26	; 0x1a
    2f12:	fb 8d       	ldd	r31, Y+27	; 0x1b
    2f14:	a0 81       	ld	r26, Z
    2f16:	b1 81       	ldd	r27, Z+1	; 0x01
    2f18:	f9 81       	ldd	r31, Y+1	; 0x01
    2f1a:	f1 30       	cpi	r31, 0x01	; 1
    2f1c:	79 f4       	brne	.+30     	; 0x2f3c <_ZN12Adafruit_GFX8drawCharEiihjjh+0x202>
    2f1e:	b5 01       	movw	r22, r10
    2f20:	6b 5f       	subi	r22, 0xFB	; 251
    2f22:	7f 4f       	sbci	r23, 0xFF	; 255
    2f24:	50 96       	adiw	r26, 0x10	; 16
    2f26:	ed 91       	ld	r30, X+
    2f28:	fc 91       	ld	r31, X
    2f2a:	51 97       	sbiw	r26, 0x11	; 17
    2f2c:	83 01       	movw	r16, r6
    2f2e:	28 e0       	ldi	r18, 0x08	; 8
    2f30:	30 e0       	ldi	r19, 0x00	; 0
    2f32:	a1 01       	movw	r20, r2
    2f34:	8a 8d       	ldd	r24, Y+26	; 0x1a
    2f36:	9b 8d       	ldd	r25, Y+27	; 0x1b
    2f38:	09 95       	icall
    2f3a:	de c0       	rjmp	.+444    	; 0x30f8 <_ZN12Adafruit_GFX8drawCharEiihjjh+0x3be>
    2f3c:	6a 85       	ldd	r22, Y+10	; 0x0a
    2f3e:	7b 85       	ldd	r23, Y+11	; 0x0b
    2f40:	68 19       	sub	r22, r8
    2f42:	79 09       	sbc	r23, r9
    2f44:	1e 96       	adiw	r26, 0x0e	; 14
    2f46:	ed 91       	ld	r30, X+
    2f48:	fc 91       	ld	r31, X
    2f4a:	1f 97       	sbiw	r26, 0x0f	; 15
    2f4c:	73 01       	movw	r14, r6
    2f4e:	0c 85       	ldd	r16, Y+12	; 0x0c
    2f50:	1d 85       	ldd	r17, Y+13	; 0x0d
    2f52:	94 01       	movw	r18, r8
    2f54:	a1 01       	movw	r20, r2
    2f56:	8a 8d       	ldd	r24, Y+26	; 0x1a
    2f58:	9b 8d       	ldd	r25, Y+27	; 0x1b
    2f5a:	09 95       	icall
    2f5c:	cd c0       	rjmp	.+410    	; 0x30f8 <_ZN12Adafruit_GFX8drawCharEiihjjh+0x3be>
    2f5e:	f9 01       	movw	r30, r18
    2f60:	34 96       	adiw	r30, 0x04	; 4
    2f62:	e4 91       	lpm	r30, Z
    2f64:	de 1a       	sub	r13, r30
    2f66:	f9 01       	movw	r30, r18
    2f68:	32 96       	adiw	r30, 0x02	; 2
    2f6a:	85 91       	lpm	r24, Z+
    2f6c:	94 91       	lpm	r25, Z
    2f6e:	b7 e0       	ldi	r27, 0x07	; 7
    2f70:	db 9e       	mul	r13, r27
    2f72:	80 0d       	add	r24, r0
    2f74:	91 1d       	adc	r25, r1
    2f76:	11 24       	eor	r1, r1
    2f78:	f9 01       	movw	r30, r18
    2f7a:	25 91       	lpm	r18, Z+
    2f7c:	34 91       	lpm	r19, Z
    2f7e:	3b 8b       	std	Y+19, r19	; 0x13
    2f80:	2a 8b       	std	Y+18, r18	; 0x12
    2f82:	fc 01       	movw	r30, r24
    2f84:	25 91       	lpm	r18, Z+
    2f86:	34 91       	lpm	r19, Z
    2f88:	29 01       	movw	r4, r18
    2f8a:	fc 01       	movw	r30, r24
    2f8c:	32 96       	adiw	r30, 0x02	; 2
    2f8e:	c4 90       	lpm	r12, Z
    2f90:	31 96       	adiw	r30, 0x01	; 1
    2f92:	34 91       	lpm	r19, Z
    2f94:	3c 87       	std	Y+12, r19	; 0x0c
    2f96:	32 96       	adiw	r30, 0x02	; 2
    2f98:	14 91       	lpm	r17, Z
    2f9a:	31 96       	adiw	r30, 0x01	; 1
    2f9c:	d4 90       	lpm	r13, Z
    2f9e:	49 81       	ldd	r20, Y+1	; 0x01
    2fa0:	42 30       	cpi	r20, 0x02	; 2
    2fa2:	58 f0       	brcs	.+22     	; 0x2fba <_ZN12Adafruit_GFX8drawCharEiihjjh+0x280>
    2fa4:	61 2e       	mov	r6, r17
    2fa6:	01 2e       	mov	r0, r17
    2fa8:	00 0c       	add	r0, r0
    2faa:	77 08       	sbc	r7, r7
    2fac:	8d 2d       	mov	r24, r13
    2fae:	0d 2c       	mov	r0, r13
    2fb0:	00 0c       	add	r0, r0
    2fb2:	99 0b       	sbc	r25, r25
    2fb4:	99 87       	std	Y+9, r25	; 0x09
    2fb6:	88 87       	std	Y+8, r24	; 0x08
    2fb8:	04 c0       	rjmp	.+8      	; 0x2fc2 <_ZN12Adafruit_GFX8drawCharEiihjjh+0x288>
    2fba:	19 86       	std	Y+9, r1	; 0x09
    2fbc:	18 86       	std	Y+8, r1	; 0x08
    2fbe:	61 2c       	mov	r6, r1
    2fc0:	71 2c       	mov	r7, r1
    2fc2:	aa 8d       	ldd	r26, Y+26	; 0x1a
    2fc4:	bb 8d       	ldd	r27, Y+27	; 0x1b
    2fc6:	ed 91       	ld	r30, X+
    2fc8:	fc 91       	ld	r31, X
    2fca:	11 97       	sbiw	r26, 0x01	; 1
    2fcc:	02 84       	ldd	r0, Z+10	; 0x0a
    2fce:	f3 85       	ldd	r31, Z+11	; 0x0b
    2fd0:	e0 2d       	mov	r30, r0
    2fd2:	cd 01       	movw	r24, r26
    2fd4:	09 95       	icall
    2fd6:	b9 81       	ldd	r27, Y+1	; 0x01
    2fd8:	8b 2e       	mov	r8, r27
    2fda:	91 2c       	mov	r9, r1
    2fdc:	68 9c       	mul	r6, r8
    2fde:	c0 01       	movw	r24, r0
    2fe0:	69 9c       	mul	r6, r9
    2fe2:	90 0d       	add	r25, r0
    2fe4:	78 9c       	mul	r7, r8
    2fe6:	90 0d       	add	r25, r0
    2fe8:	11 24       	eor	r1, r1
    2fea:	fc 01       	movw	r30, r24
    2fec:	ea 0d       	add	r30, r10
    2fee:	fb 1d       	adc	r31, r11
    2ff0:	f9 8b       	std	Y+17, r31	; 0x11
    2ff2:	e8 8b       	std	Y+16, r30	; 0x10
    2ff4:	1a 82       	std	Y+2, r1	; 0x02
    2ff6:	71 2c       	mov	r7, r1
    2ff8:	61 2c       	mov	r6, r1
    2ffa:	e1 2f       	mov	r30, r17
    2ffc:	11 0f       	add	r17, r17
    2ffe:	ff 0b       	sbc	r31, r31
    3000:	95 01       	movw	r18, r10
    3002:	2e 0f       	add	r18, r30
    3004:	3f 1f       	adc	r19, r31
    3006:	3b 87       	std	Y+11, r19	; 0x0b
    3008:	2a 87       	std	Y+10, r18	; 0x0a
    300a:	ac 0c       	add	r10, r12
    300c:	b1 1c       	adc	r11, r1
    300e:	a5 01       	movw	r20, r10
    3010:	4e 0f       	add	r20, r30
    3012:	5f 1f       	adc	r21, r31
    3014:	5f 8b       	std	Y+23, r21	; 0x17
    3016:	4e 8b       	std	Y+22, r20	; 0x16
    3018:	c1 01       	movw	r24, r2
    301a:	8d 0d       	add	r24, r13
    301c:	91 1d       	adc	r25, r1
    301e:	d7 fc       	sbrc	r13, 7
    3020:	9a 95       	dec	r25
    3022:	99 8f       	std	Y+25, r25	; 0x19
    3024:	88 8f       	std	Y+24, r24	; 0x18
    3026:	9c 85       	ldd	r25, Y+12	; 0x0c
    3028:	69 16       	cp	r6, r25
    302a:	08 f0       	brcs	.+2      	; 0x302e <_ZN12Adafruit_GFX8drawCharEiihjjh+0x2f4>
    302c:	65 c0       	rjmp	.+202    	; 0x30f8 <_ZN12Adafruit_GFX8drawCharEiihjjh+0x3be>
    302e:	86 2d       	mov	r24, r6
    3030:	90 e0       	ldi	r25, 0x00	; 0
    3032:	48 85       	ldd	r20, Y+8	; 0x08
    3034:	59 85       	ldd	r21, Y+9	; 0x09
    3036:	48 0f       	add	r20, r24
    3038:	59 1f       	adc	r21, r25
    303a:	48 9d       	mul	r20, r8
    303c:	90 01       	movw	r18, r0
    303e:	49 9d       	mul	r20, r9
    3040:	30 0d       	add	r19, r0
    3042:	58 9d       	mul	r21, r8
    3044:	30 0d       	add	r19, r0
    3046:	11 24       	eor	r1, r1
    3048:	d1 01       	movw	r26, r2
    304a:	a2 0f       	add	r26, r18
    304c:	b3 1f       	adc	r27, r19
    304e:	bf 87       	std	Y+15, r27	; 0x0f
    3050:	ae 87       	std	Y+14, r26	; 0x0e
    3052:	aa 84       	ldd	r10, Y+10	; 0x0a
    3054:	bb 84       	ldd	r11, Y+11	; 0x0b
    3056:	e8 89       	ldd	r30, Y+16	; 0x10
    3058:	f9 89       	ldd	r31, Y+17	; 0x11
    305a:	fd 83       	std	Y+5, r31	; 0x05
    305c:	ec 83       	std	Y+4, r30	; 0x04
    305e:	da 80       	ldd	r13, Y+2	; 0x02
    3060:	fa 85       	ldd	r31, Y+10	; 0x0a
    3062:	df 1a       	sub	r13, r31
    3064:	28 8d       	ldd	r18, Y+24	; 0x18
    3066:	39 8d       	ldd	r19, Y+25	; 0x19
    3068:	28 0f       	add	r18, r24
    306a:	39 1f       	adc	r19, r25
    306c:	3d 8b       	std	Y+21, r19	; 0x15
    306e:	2c 8b       	std	Y+20, r18	; 0x14
    3070:	8d 2d       	mov	r24, r13
    3072:	8a 0d       	add	r24, r10
    3074:	4e 89       	ldd	r20, Y+22	; 0x16
    3076:	5f 89       	ldd	r21, Y+23	; 0x17
    3078:	a4 16       	cp	r10, r20
    307a:	b5 06       	cpc	r11, r21
    307c:	c1 f1       	breq	.+112    	; 0x30ee <_ZN12Adafruit_GFX8drawCharEiihjjh+0x3b4>
    307e:	87 70       	andi	r24, 0x07	; 7
    3080:	41 f4       	brne	.+16     	; 0x3092 <_ZN12Adafruit_GFX8drawCharEiihjjh+0x358>
    3082:	c2 01       	movw	r24, r4
    3084:	01 96       	adiw	r24, 0x01	; 1
    3086:	ea 89       	ldd	r30, Y+18	; 0x12
    3088:	fb 89       	ldd	r31, Y+19	; 0x13
    308a:	e4 0d       	add	r30, r4
    308c:	f5 1d       	adc	r31, r5
    308e:	74 90       	lpm	r7, Z
    3090:	2c 01       	movw	r4, r24
    3092:	77 fe       	sbrs	r7, 7
    3094:	21 c0       	rjmp	.+66     	; 0x30d8 <_ZN12Adafruit_GFX8drawCharEiihjjh+0x39e>
    3096:	aa 8d       	ldd	r26, Y+26	; 0x1a
    3098:	bb 8d       	ldd	r27, Y+27	; 0x1b
    309a:	ed 91       	ld	r30, X+
    309c:	fc 91       	ld	r31, X
    309e:	b9 81       	ldd	r27, Y+1	; 0x01
    30a0:	b1 30       	cpi	r27, 0x01	; 1
    30a2:	61 f4       	brne	.+24     	; 0x30bc <_ZN12Adafruit_GFX8drawCharEiihjjh+0x382>
    30a4:	04 84       	ldd	r0, Z+12	; 0x0c
    30a6:	f5 85       	ldd	r31, Z+13	; 0x0d
    30a8:	e0 2d       	mov	r30, r0
    30aa:	2e 81       	ldd	r18, Y+6	; 0x06
    30ac:	3f 81       	ldd	r19, Y+7	; 0x07
    30ae:	4c 89       	ldd	r20, Y+20	; 0x14
    30b0:	5d 89       	ldd	r21, Y+21	; 0x15
    30b2:	b5 01       	movw	r22, r10
    30b4:	8a 8d       	ldd	r24, Y+26	; 0x1a
    30b6:	9b 8d       	ldd	r25, Y+27	; 0x1b
    30b8:	09 95       	icall
    30ba:	0e c0       	rjmp	.+28     	; 0x30d8 <_ZN12Adafruit_GFX8drawCharEiihjjh+0x39e>
    30bc:	06 84       	ldd	r0, Z+14	; 0x0e
    30be:	f7 85       	ldd	r31, Z+15	; 0x0f
    30c0:	e0 2d       	mov	r30, r0
    30c2:	ee 80       	ldd	r14, Y+6	; 0x06
    30c4:	ff 80       	ldd	r15, Y+7	; 0x07
    30c6:	84 01       	movw	r16, r8
    30c8:	94 01       	movw	r18, r8
    30ca:	4e 85       	ldd	r20, Y+14	; 0x0e
    30cc:	5f 85       	ldd	r21, Y+15	; 0x0f
    30ce:	6c 81       	ldd	r22, Y+4	; 0x04
    30d0:	7d 81       	ldd	r23, Y+5	; 0x05
    30d2:	8a 8d       	ldd	r24, Y+26	; 0x1a
    30d4:	9b 8d       	ldd	r25, Y+27	; 0x1b
    30d6:	09 95       	icall
    30d8:	77 0c       	add	r7, r7
    30da:	ec 81       	ldd	r30, Y+4	; 0x04
    30dc:	fd 81       	ldd	r31, Y+5	; 0x05
    30de:	e8 0d       	add	r30, r8
    30e0:	f9 1d       	adc	r31, r9
    30e2:	fd 83       	std	Y+5, r31	; 0x05
    30e4:	ec 83       	std	Y+4, r30	; 0x04
    30e6:	ff ef       	ldi	r31, 0xFF	; 255
    30e8:	af 1a       	sub	r10, r31
    30ea:	bf 0a       	sbc	r11, r31
    30ec:	c1 cf       	rjmp	.-126    	; 0x3070 <_ZN12Adafruit_GFX8drawCharEiihjjh+0x336>
    30ee:	2a 81       	ldd	r18, Y+2	; 0x02
    30f0:	2c 0d       	add	r18, r12
    30f2:	2a 83       	std	Y+2, r18	; 0x02
    30f4:	63 94       	inc	r6
    30f6:	97 cf       	rjmp	.-210    	; 0x3026 <_ZN12Adafruit_GFX8drawCharEiihjjh+0x2ec>
    30f8:	aa 8d       	ldd	r26, Y+26	; 0x1a
    30fa:	bb 8d       	ldd	r27, Y+27	; 0x1b
    30fc:	ed 91       	ld	r30, X+
    30fe:	fc 91       	ld	r31, X
    3100:	11 97       	sbiw	r26, 0x01	; 1
    3102:	06 88       	ldd	r0, Z+22	; 0x16
    3104:	f7 89       	ldd	r31, Z+23	; 0x17
    3106:	e0 2d       	mov	r30, r0
    3108:	cd 01       	movw	r24, r26
    310a:	6b 96       	adiw	r28, 0x1b	; 27
    310c:	0f b6       	in	r0, 0x3f	; 63
    310e:	f8 94       	cli
    3110:	de bf       	out	0x3e, r29	; 62
    3112:	0f be       	out	0x3f, r0	; 63
    3114:	cd bf       	out	0x3d, r28	; 61
    3116:	df 91       	pop	r29
    3118:	cf 91       	pop	r28
    311a:	1f 91       	pop	r17
    311c:	0f 91       	pop	r16
    311e:	ff 90       	pop	r15
    3120:	ef 90       	pop	r14
    3122:	df 90       	pop	r13
    3124:	cf 90       	pop	r12
    3126:	bf 90       	pop	r11
    3128:	af 90       	pop	r10
    312a:	9f 90       	pop	r9
    312c:	8f 90       	pop	r8
    312e:	7f 90       	pop	r7
    3130:	6f 90       	pop	r6
    3132:	5f 90       	pop	r5
    3134:	4f 90       	pop	r4
    3136:	3f 90       	pop	r3
    3138:	2f 90       	pop	r2
    313a:	09 94       	ijmp
    313c:	6b 96       	adiw	r28, 0x1b	; 27
    313e:	0f b6       	in	r0, 0x3f	; 63
    3140:	f8 94       	cli
    3142:	de bf       	out	0x3e, r29	; 62
    3144:	0f be       	out	0x3f, r0	; 63
    3146:	cd bf       	out	0x3d, r28	; 61
    3148:	df 91       	pop	r29
    314a:	cf 91       	pop	r28
    314c:	1f 91       	pop	r17
    314e:	0f 91       	pop	r16
    3150:	ff 90       	pop	r15
    3152:	ef 90       	pop	r14
    3154:	df 90       	pop	r13
    3156:	cf 90       	pop	r12
    3158:	bf 90       	pop	r11
    315a:	af 90       	pop	r10
    315c:	9f 90       	pop	r9
    315e:	8f 90       	pop	r8
    3160:	7f 90       	pop	r7
    3162:	6f 90       	pop	r6
    3164:	5f 90       	pop	r5
    3166:	4f 90       	pop	r4
    3168:	3f 90       	pop	r3
    316a:	2f 90       	pop	r2
    316c:	08 95       	ret

0000316e <_ZN12Adafruit_GFX5writeEh>:
    316e:	af 92       	push	r10
    3170:	bf 92       	push	r11
    3172:	cf 92       	push	r12
    3174:	ef 92       	push	r14
    3176:	ff 92       	push	r15
    3178:	0f 93       	push	r16
    317a:	1f 93       	push	r17
    317c:	cf 93       	push	r28
    317e:	df 93       	push	r29
    3180:	ec 01       	movw	r28, r24
    3182:	26 2f       	mov	r18, r22
    3184:	88 8d       	ldd	r24, Y+24	; 0x18
    3186:	99 8d       	ldd	r25, Y+25	; 0x19
    3188:	00 97       	sbiw	r24, 0x00	; 0
    318a:	09 f0       	breq	.+2      	; 0x318e <_ZN12Adafruit_GFX5writeEh+0x20>
    318c:	40 c0       	rjmp	.+128    	; 0x320e <_ZN12Adafruit_GFX5writeEh+0xa0>
    318e:	6a 30       	cpi	r22, 0x0A	; 10
    3190:	59 f4       	brne	.+22     	; 0x31a8 <_ZN12Adafruit_GFX5writeEh+0x3a>
    3192:	1d 86       	std	Y+13, r1	; 0x0d
    3194:	1c 86       	std	Y+12, r1	; 0x0c
    3196:	2c 89       	ldd	r18, Y+20	; 0x14
    3198:	8e 85       	ldd	r24, Y+14	; 0x0e
    319a:	9f 85       	ldd	r25, Y+15	; 0x0f
    319c:	38 e0       	ldi	r19, 0x08	; 8
    319e:	23 9f       	mul	r18, r19
    31a0:	80 0d       	add	r24, r0
    31a2:	91 1d       	adc	r25, r1
    31a4:	11 24       	eor	r1, r1
    31a6:	41 c0       	rjmp	.+130    	; 0x322a <_ZN12Adafruit_GFX5writeEh+0xbc>
    31a8:	6d 30       	cpi	r22, 0x0D	; 13
    31aa:	09 f4       	brne	.+2      	; 0x31ae <_ZN12Adafruit_GFX5writeEh+0x40>
    31ac:	aa c0       	rjmp	.+340    	; 0x3302 <_ZN12Adafruit_GFX5writeEh+0x194>
    31ae:	8e 89       	ldd	r24, Y+22	; 0x16
    31b0:	88 23       	and	r24, r24
    31b2:	c1 f0       	breq	.+48     	; 0x31e4 <_ZN12Adafruit_GFX5writeEh+0x76>
    31b4:	3c 89       	ldd	r19, Y+20	; 0x14
    31b6:	8c 85       	ldd	r24, Y+12	; 0x0c
    31b8:	9d 85       	ldd	r25, Y+13	; 0x0d
    31ba:	46 e0       	ldi	r20, 0x06	; 6
    31bc:	34 9f       	mul	r19, r20
    31be:	80 0d       	add	r24, r0
    31c0:	91 1d       	adc	r25, r1
    31c2:	11 24       	eor	r1, r1
    31c4:	48 85       	ldd	r20, Y+8	; 0x08
    31c6:	59 85       	ldd	r21, Y+9	; 0x09
    31c8:	48 17       	cp	r20, r24
    31ca:	59 07       	cpc	r21, r25
    31cc:	5c f4       	brge	.+22     	; 0x31e4 <_ZN12Adafruit_GFX5writeEh+0x76>
    31ce:	1d 86       	std	Y+13, r1	; 0x0d
    31d0:	1c 86       	std	Y+12, r1	; 0x0c
    31d2:	8e 85       	ldd	r24, Y+14	; 0x0e
    31d4:	9f 85       	ldd	r25, Y+15	; 0x0f
    31d6:	48 e0       	ldi	r20, 0x08	; 8
    31d8:	34 9f       	mul	r19, r20
    31da:	80 0d       	add	r24, r0
    31dc:	91 1d       	adc	r25, r1
    31de:	11 24       	eor	r1, r1
    31e0:	9f 87       	std	Y+15, r25	; 0x0f
    31e2:	8e 87       	std	Y+14, r24	; 0x0e
    31e4:	ea 88       	ldd	r14, Y+18	; 0x12
    31e6:	fb 88       	ldd	r15, Y+19	; 0x13
    31e8:	08 89       	ldd	r16, Y+16	; 0x10
    31ea:	19 89       	ldd	r17, Y+17	; 0x11
    31ec:	4e 85       	ldd	r20, Y+14	; 0x0e
    31ee:	5f 85       	ldd	r21, Y+15	; 0x0f
    31f0:	6c 85       	ldd	r22, Y+12	; 0x0c
    31f2:	7d 85       	ldd	r23, Y+13	; 0x0d
    31f4:	cc 88       	ldd	r12, Y+20	; 0x14
    31f6:	ce 01       	movw	r24, r28
    31f8:	0e 94 9d 16 	call	0x2d3a	; 0x2d3a <_ZN12Adafruit_GFX8drawCharEiihjjh>
    31fc:	2c 89       	ldd	r18, Y+20	; 0x14
    31fe:	8c 85       	ldd	r24, Y+12	; 0x0c
    3200:	9d 85       	ldd	r25, Y+13	; 0x0d
    3202:	36 e0       	ldi	r19, 0x06	; 6
    3204:	23 9f       	mul	r18, r19
    3206:	80 0d       	add	r24, r0
    3208:	91 1d       	adc	r25, r1
    320a:	11 24       	eor	r1, r1
    320c:	42 c0       	rjmp	.+132    	; 0x3292 <_ZN12Adafruit_GFX5writeEh+0x124>
    320e:	6a 30       	cpi	r22, 0x0A	; 10
    3210:	79 f4       	brne	.+30     	; 0x3230 <_ZN12Adafruit_GFX5writeEh+0xc2>
    3212:	1d 86       	std	Y+13, r1	; 0x0d
    3214:	1c 86       	std	Y+12, r1	; 0x0c
    3216:	2c 89       	ldd	r18, Y+20	; 0x14
    3218:	fc 01       	movw	r30, r24
    321a:	36 96       	adiw	r30, 0x06	; 6
    321c:	e4 91       	lpm	r30, Z
    321e:	8e 85       	ldd	r24, Y+14	; 0x0e
    3220:	9f 85       	ldd	r25, Y+15	; 0x0f
    3222:	2e 9f       	mul	r18, r30
    3224:	80 0d       	add	r24, r0
    3226:	91 1d       	adc	r25, r1
    3228:	11 24       	eor	r1, r1
    322a:	9f 87       	std	Y+15, r25	; 0x0f
    322c:	8e 87       	std	Y+14, r24	; 0x0e
    322e:	69 c0       	rjmp	.+210    	; 0x3302 <_ZN12Adafruit_GFX5writeEh+0x194>
    3230:	6d 30       	cpi	r22, 0x0D	; 13
    3232:	09 f4       	brne	.+2      	; 0x3236 <_ZN12Adafruit_GFX5writeEh+0xc8>
    3234:	66 c0       	rjmp	.+204    	; 0x3302 <_ZN12Adafruit_GFX5writeEh+0x194>
    3236:	fc 01       	movw	r30, r24
    3238:	34 96       	adiw	r30, 0x04	; 4
    323a:	34 91       	lpm	r19, Z
    323c:	63 17       	cp	r22, r19
    323e:	08 f4       	brcc	.+2      	; 0x3242 <_ZN12Adafruit_GFX5writeEh+0xd4>
    3240:	60 c0       	rjmp	.+192    	; 0x3302 <_ZN12Adafruit_GFX5writeEh+0x194>
    3242:	31 96       	adiw	r30, 0x01	; 1
    3244:	e4 91       	lpm	r30, Z
    3246:	e6 17       	cp	r30, r22
    3248:	08 f4       	brcc	.+2      	; 0x324c <_ZN12Adafruit_GFX5writeEh+0xde>
    324a:	5b c0       	rjmp	.+182    	; 0x3302 <_ZN12Adafruit_GFX5writeEh+0x194>
    324c:	fc 01       	movw	r30, r24
    324e:	32 96       	adiw	r30, 0x02	; 2
    3250:	65 91       	lpm	r22, Z+
    3252:	74 91       	lpm	r23, Z
    3254:	42 2f       	mov	r20, r18
    3256:	50 e0       	ldi	r21, 0x00	; 0
    3258:	43 1b       	sub	r20, r19
    325a:	51 09       	sbc	r21, r1
    325c:	37 e0       	ldi	r19, 0x07	; 7
    325e:	34 9f       	mul	r19, r20
    3260:	50 01       	movw	r10, r0
    3262:	35 9f       	mul	r19, r21
    3264:	b0 0c       	add	r11, r0
    3266:	11 24       	eor	r1, r1
    3268:	a6 0e       	add	r10, r22
    326a:	b7 1e       	adc	r11, r23
    326c:	f5 01       	movw	r30, r10
    326e:	32 96       	adiw	r30, 0x02	; 2
    3270:	34 91       	lpm	r19, Z
    3272:	31 96       	adiw	r30, 0x01	; 1
    3274:	e4 91       	lpm	r30, Z
    3276:	33 23       	and	r19, r19
    3278:	11 f0       	breq	.+4      	; 0x327e <_ZN12Adafruit_GFX5writeEh+0x110>
    327a:	e1 11       	cpse	r30, r1
    327c:	0d c0       	rjmp	.+26     	; 0x3298 <_ZN12Adafruit_GFX5writeEh+0x12a>
    327e:	f5 01       	movw	r30, r10
    3280:	34 96       	adiw	r30, 0x04	; 4
    3282:	e4 91       	lpm	r30, Z
    3284:	2c 89       	ldd	r18, Y+20	; 0x14
    3286:	8c 85       	ldd	r24, Y+12	; 0x0c
    3288:	9d 85       	ldd	r25, Y+13	; 0x0d
    328a:	e2 9f       	mul	r30, r18
    328c:	80 0d       	add	r24, r0
    328e:	91 1d       	adc	r25, r1
    3290:	11 24       	eor	r1, r1
    3292:	9d 87       	std	Y+13, r25	; 0x0d
    3294:	8c 87       	std	Y+12, r24	; 0x0c
    3296:	35 c0       	rjmp	.+106    	; 0x3302 <_ZN12Adafruit_GFX5writeEh+0x194>
    3298:	f5 01       	movw	r30, r10
    329a:	35 96       	adiw	r30, 0x05	; 5
    329c:	44 91       	lpm	r20, Z
    329e:	5e 89       	ldd	r21, Y+22	; 0x16
    32a0:	55 23       	and	r21, r21
    32a2:	11 f1       	breq	.+68     	; 0x32e8 <_ZN12Adafruit_GFX5writeEh+0x17a>
    32a4:	6c 89       	ldd	r22, Y+20	; 0x14
    32a6:	e3 2f       	mov	r30, r19
    32a8:	f0 e0       	ldi	r31, 0x00	; 0
    32aa:	e4 0f       	add	r30, r20
    32ac:	f1 1d       	adc	r31, r1
    32ae:	47 fd       	sbrc	r20, 7
    32b0:	fa 95       	dec	r31
    32b2:	6e 9f       	mul	r22, r30
    32b4:	d0 01       	movw	r26, r0
    32b6:	6f 9f       	mul	r22, r31
    32b8:	b0 0d       	add	r27, r0
    32ba:	11 24       	eor	r1, r1
    32bc:	4c 85       	ldd	r20, Y+12	; 0x0c
    32be:	5d 85       	ldd	r21, Y+13	; 0x0d
    32c0:	4a 0f       	add	r20, r26
    32c2:	5b 1f       	adc	r21, r27
    32c4:	e8 85       	ldd	r30, Y+8	; 0x08
    32c6:	f9 85       	ldd	r31, Y+9	; 0x09
    32c8:	e4 17       	cp	r30, r20
    32ca:	f5 07       	cpc	r31, r21
    32cc:	6c f4       	brge	.+26     	; 0x32e8 <_ZN12Adafruit_GFX5writeEh+0x17a>
    32ce:	1d 86       	std	Y+13, r1	; 0x0d
    32d0:	1c 86       	std	Y+12, r1	; 0x0c
    32d2:	fc 01       	movw	r30, r24
    32d4:	36 96       	adiw	r30, 0x06	; 6
    32d6:	e4 91       	lpm	r30, Z
    32d8:	8e 85       	ldd	r24, Y+14	; 0x0e
    32da:	9f 85       	ldd	r25, Y+15	; 0x0f
    32dc:	6e 9f       	mul	r22, r30
    32de:	80 0d       	add	r24, r0
    32e0:	91 1d       	adc	r25, r1
    32e2:	11 24       	eor	r1, r1
    32e4:	9f 87       	std	Y+15, r25	; 0x0f
    32e6:	8e 87       	std	Y+14, r24	; 0x0e
    32e8:	ea 88       	ldd	r14, Y+18	; 0x12
    32ea:	fb 88       	ldd	r15, Y+19	; 0x13
    32ec:	08 89       	ldd	r16, Y+16	; 0x10
    32ee:	19 89       	ldd	r17, Y+17	; 0x11
    32f0:	4e 85       	ldd	r20, Y+14	; 0x0e
    32f2:	5f 85       	ldd	r21, Y+15	; 0x0f
    32f4:	6c 85       	ldd	r22, Y+12	; 0x0c
    32f6:	7d 85       	ldd	r23, Y+13	; 0x0d
    32f8:	cc 88       	ldd	r12, Y+20	; 0x14
    32fa:	ce 01       	movw	r24, r28
    32fc:	0e 94 9d 16 	call	0x2d3a	; 0x2d3a <_ZN12Adafruit_GFX8drawCharEiihjjh>
    3300:	be cf       	rjmp	.-132    	; 0x327e <_ZN12Adafruit_GFX5writeEh+0x110>
    3302:	81 e0       	ldi	r24, 0x01	; 1
    3304:	90 e0       	ldi	r25, 0x00	; 0
    3306:	df 91       	pop	r29
    3308:	cf 91       	pop	r28
    330a:	1f 91       	pop	r17
    330c:	0f 91       	pop	r16
    330e:	ff 90       	pop	r15
    3310:	ef 90       	pop	r14
    3312:	cf 90       	pop	r12
    3314:	bf 90       	pop	r11
    3316:	af 90       	pop	r10
    3318:	08 95       	ret

0000331a <_ZN12Adafruit_GFX9setCursorEii>:
    331a:	fc 01       	movw	r30, r24
    331c:	75 87       	std	Z+13, r23	; 0x0d
    331e:	64 87       	std	Z+12, r22	; 0x0c
    3320:	57 87       	std	Z+15, r21	; 0x0f
    3322:	46 87       	std	Z+14, r20	; 0x0e
    3324:	08 95       	ret

00003326 <_ZN12Adafruit_GFX11setTextSizeEh>:
    3326:	61 11       	cpse	r22, r1
    3328:	01 c0       	rjmp	.+2      	; 0x332c <_ZN12Adafruit_GFX11setTextSizeEh+0x6>
    332a:	61 e0       	ldi	r22, 0x01	; 1
    332c:	fc 01       	movw	r30, r24
    332e:	64 8b       	std	Z+20, r22	; 0x14
    3330:	08 95       	ret

00003332 <_ZN12Adafruit_GFX12setTextColorEj>:
    3332:	fc 01       	movw	r30, r24
    3334:	73 8b       	std	Z+19, r23	; 0x13
    3336:	62 8b       	std	Z+18, r22	; 0x12
    3338:	71 8b       	std	Z+17, r23	; 0x11
    333a:	60 8b       	std	Z+16, r22	; 0x10
    333c:	08 95       	ret

0000333e <_ZNK12Adafruit_GFX11getRotationEv>:
    333e:	fc 01       	movw	r30, r24
    3340:	85 89       	ldd	r24, Z+21	; 0x15
    3342:	08 95       	ret

00003344 <_ZNK12Adafruit_GFX5widthEv>:
    3344:	fc 01       	movw	r30, r24
    3346:	80 85       	ldd	r24, Z+8	; 0x08
    3348:	91 85       	ldd	r25, Z+9	; 0x09
    334a:	08 95       	ret

0000334c <_ZNK12Adafruit_GFX6heightEv>:
    334c:	fc 01       	movw	r30, r24
    334e:	82 85       	ldd	r24, Z+10	; 0x0a
    3350:	93 85       	ldd	r25, Z+11	; 0x0b
    3352:	08 95       	ret

00003354 <_ZN16Adafruit_SSD130613drawFastHLineEiiij>:
    3354:	0f 93       	push	r16
    3356:	1f 93       	push	r17
    3358:	cf 93       	push	r28
    335a:	df 93       	push	r29
    335c:	dc 01       	movw	r26, r24
    335e:	fb 01       	movw	r30, r22
    3360:	55 96       	adiw	r26, 0x15	; 21
    3362:	8c 91       	ld	r24, X
    3364:	55 97       	sbiw	r26, 0x15	; 21
    3366:	82 30       	cpi	r24, 0x02	; 2
    3368:	89 f0       	breq	.+34     	; 0x338c <_ZN16Adafruit_SSD130613drawFastHLineEiiij+0x38>
    336a:	83 30       	cpi	r24, 0x03	; 3
    336c:	21 f1       	breq	.+72     	; 0x33b6 <_ZN16Adafruit_SSD130613drawFastHLineEiiij+0x62>
    336e:	81 30       	cpi	r24, 0x01	; 1
    3370:	09 f0       	breq	.+2      	; 0x3374 <_ZN16Adafruit_SSD130613drawFastHLineEiiij+0x20>
    3372:	e7 c0       	rjmp	.+462    	; 0x3542 <_ZN16Adafruit_SSD130613drawFastHLineEiiij+0x1ee>
    3374:	14 96       	adiw	r26, 0x04	; 4
    3376:	8d 91       	ld	r24, X+
    3378:	9c 91       	ld	r25, X
    337a:	15 97       	sbiw	r26, 0x05	; 5
    337c:	bc 01       	movw	r22, r24
    337e:	64 1b       	sub	r22, r20
    3380:	75 0b       	sbc	r23, r21
    3382:	ab 01       	movw	r20, r22
    3384:	41 50       	subi	r20, 0x01	; 1
    3386:	51 09       	sbc	r21, r1
    3388:	bf 01       	movw	r22, r30
    338a:	1d c0       	rjmp	.+58     	; 0x33c6 <_ZN16Adafruit_SSD130613drawFastHLineEiiij+0x72>
    338c:	14 96       	adiw	r26, 0x04	; 4
    338e:	6d 91       	ld	r22, X+
    3390:	7c 91       	ld	r23, X
    3392:	15 97       	sbiw	r26, 0x05	; 5
    3394:	cb 01       	movw	r24, r22
    3396:	8e 1b       	sub	r24, r30
    3398:	9f 0b       	sbc	r25, r31
    339a:	fc 01       	movw	r30, r24
    339c:	16 96       	adiw	r26, 0x06	; 6
    339e:	8d 91       	ld	r24, X+
    33a0:	9c 91       	ld	r25, X
    33a2:	17 97       	sbiw	r26, 0x07	; 7
    33a4:	bc 01       	movw	r22, r24
    33a6:	64 1b       	sub	r22, r20
    33a8:	75 0b       	sbc	r23, r21
    33aa:	ab 01       	movw	r20, r22
    33ac:	41 50       	subi	r20, 0x01	; 1
    33ae:	51 09       	sbc	r21, r1
    33b0:	e2 1b       	sub	r30, r18
    33b2:	f3 0b       	sbc	r31, r19
    33b4:	c6 c0       	rjmp	.+396    	; 0x3542 <_ZN16Adafruit_SSD130613drawFastHLineEiiij+0x1ee>
    33b6:	16 96       	adiw	r26, 0x06	; 6
    33b8:	6d 91       	ld	r22, X+
    33ba:	7c 91       	ld	r23, X
    33bc:	17 97       	sbiw	r26, 0x07	; 7
    33be:	6e 1b       	sub	r22, r30
    33c0:	7f 0b       	sbc	r23, r31
    33c2:	62 1b       	sub	r22, r18
    33c4:	73 0b       	sbc	r23, r19
    33c6:	57 fd       	sbrc	r21, 7
    33c8:	1b c1       	rjmp	.+566    	; 0x3600 <_ZN16Adafruit_SSD130613drawFastHLineEiiij+0x2ac>
    33ca:	14 96       	adiw	r26, 0x04	; 4
    33cc:	8d 91       	ld	r24, X+
    33ce:	9c 91       	ld	r25, X
    33d0:	15 97       	sbiw	r26, 0x05	; 5
    33d2:	48 17       	cp	r20, r24
    33d4:	59 07       	cpc	r21, r25
    33d6:	0c f0       	brlt	.+2      	; 0x33da <_ZN16Adafruit_SSD130613drawFastHLineEiiij+0x86>
    33d8:	13 c1       	rjmp	.+550    	; 0x3600 <_ZN16Adafruit_SSD130613drawFastHLineEiiij+0x2ac>
    33da:	77 ff       	sbrs	r23, 7
    33dc:	04 c0       	rjmp	.+8      	; 0x33e6 <_ZN16Adafruit_SSD130613drawFastHLineEiiij+0x92>
    33de:	26 0f       	add	r18, r22
    33e0:	37 1f       	adc	r19, r23
    33e2:	60 e0       	ldi	r22, 0x00	; 0
    33e4:	70 e0       	ldi	r23, 0x00	; 0
    33e6:	16 96       	adiw	r26, 0x06	; 6
    33e8:	8d 91       	ld	r24, X+
    33ea:	9c 91       	ld	r25, X
    33ec:	17 97       	sbiw	r26, 0x07	; 7
    33ee:	fb 01       	movw	r30, r22
    33f0:	e2 0f       	add	r30, r18
    33f2:	f3 1f       	adc	r31, r19
    33f4:	8e 17       	cp	r24, r30
    33f6:	9f 07       	cpc	r25, r31
    33f8:	1c f4       	brge	.+6      	; 0x3400 <_ZN16Adafruit_SSD130613drawFastHLineEiiij+0xac>
    33fa:	9c 01       	movw	r18, r24
    33fc:	26 1b       	sub	r18, r22
    33fe:	37 0b       	sbc	r19, r23
    3400:	12 16       	cp	r1, r18
    3402:	13 06       	cpc	r1, r19
    3404:	0c f0       	brlt	.+2      	; 0x3408 <_ZN16Adafruit_SSD130613drawFastHLineEiiij+0xb4>
    3406:	fc c0       	rjmp	.+504    	; 0x3600 <_ZN16Adafruit_SSD130613drawFastHLineEiiij+0x2ac>
    3408:	a2 2f       	mov	r26, r18
    340a:	86 2f       	mov	r24, r22
    340c:	86 95       	lsr	r24
    340e:	86 95       	lsr	r24
    3410:	86 95       	lsr	r24
    3412:	90 e8       	ldi	r25, 0x80	; 128
    3414:	89 9f       	mul	r24, r25
    3416:	40 0d       	add	r20, r0
    3418:	51 1d       	adc	r21, r1
    341a:	11 24       	eor	r1, r1
    341c:	fa 01       	movw	r30, r20
    341e:	ea 5d       	subi	r30, 0xDA	; 218
    3420:	fe 4f       	sbci	r31, 0xFE	; 254
    3422:	67 70       	andi	r22, 0x07	; 7
    3424:	a9 f1       	breq	.+106    	; 0x3490 <_ZN16Adafruit_SSD130613drawFastHLineEiiij+0x13c>
    3426:	98 e0       	ldi	r25, 0x08	; 8
    3428:	96 1b       	sub	r25, r22
    342a:	49 2f       	mov	r20, r25
    342c:	50 e0       	ldi	r21, 0x00	; 0
    342e:	ea 01       	movw	r28, r20
    3430:	c2 5e       	subi	r28, 0xE2	; 226
    3432:	de 4f       	sbci	r29, 0xFE	; 254
    3434:	88 81       	ld	r24, Y
    3436:	29 17       	cp	r18, r25
    3438:	90 f4       	brcc	.+36     	; 0x345e <_ZN16Adafruit_SSD130613drawFastHLineEiiij+0x10a>
    343a:	42 1b       	sub	r20, r18
    343c:	51 09       	sbc	r21, r1
    343e:	2f ef       	ldi	r18, 0xFF	; 255
    3440:	30 e0       	ldi	r19, 0x00	; 0
    3442:	02 c0       	rjmp	.+4      	; 0x3448 <_ZN16Adafruit_SSD130613drawFastHLineEiiij+0xf4>
    3444:	35 95       	asr	r19
    3446:	27 95       	ror	r18
    3448:	4a 95       	dec	r20
    344a:	e2 f7       	brpl	.-8      	; 0x3444 <_ZN16Adafruit_SSD130613drawFastHLineEiiij+0xf0>
    344c:	82 23       	and	r24, r18
    344e:	01 30       	cpi	r16, 0x01	; 1
    3450:	11 05       	cpc	r17, r1
    3452:	41 f0       	breq	.+16     	; 0x3464 <_ZN16Adafruit_SSD130613drawFastHLineEiiij+0x110>
    3454:	68 f0       	brcs	.+26     	; 0x3470 <_ZN16Adafruit_SSD130613drawFastHLineEiiij+0x11c>
    3456:	02 30       	cpi	r16, 0x02	; 2
    3458:	11 05       	cpc	r17, r1
    345a:	89 f0       	breq	.+34     	; 0x347e <_ZN16Adafruit_SSD130613drawFastHLineEiiij+0x12a>
    345c:	d1 c0       	rjmp	.+418    	; 0x3600 <_ZN16Adafruit_SSD130613drawFastHLineEiiij+0x2ac>
    345e:	01 30       	cpi	r16, 0x01	; 1
    3460:	11 05       	cpc	r17, r1
    3462:	19 f4       	brne	.+6      	; 0x346a <_ZN16Adafruit_SSD130613drawFastHLineEiiij+0x116>
    3464:	20 81       	ld	r18, Z
    3466:	82 2b       	or	r24, r18
    3468:	0c c0       	rjmp	.+24     	; 0x3482 <_ZN16Adafruit_SSD130613drawFastHLineEiiij+0x12e>
    346a:	01 30       	cpi	r16, 0x01	; 1
    346c:	11 05       	cpc	r17, r1
    346e:	20 f4       	brcc	.+8      	; 0x3478 <_ZN16Adafruit_SSD130613drawFastHLineEiiij+0x124>
    3470:	80 95       	com	r24
    3472:	20 81       	ld	r18, Z
    3474:	82 23       	and	r24, r18
    3476:	05 c0       	rjmp	.+10     	; 0x3482 <_ZN16Adafruit_SSD130613drawFastHLineEiiij+0x12e>
    3478:	02 30       	cpi	r16, 0x02	; 2
    347a:	11 05       	cpc	r17, r1
    347c:	31 f4       	brne	.+12     	; 0x348a <_ZN16Adafruit_SSD130613drawFastHLineEiiij+0x136>
    347e:	20 81       	ld	r18, Z
    3480:	82 27       	eor	r24, r18
    3482:	80 83       	st	Z, r24
    3484:	a9 17       	cp	r26, r25
    3486:	08 f4       	brcc	.+2      	; 0x348a <_ZN16Adafruit_SSD130613drawFastHLineEiiij+0x136>
    3488:	bb c0       	rjmp	.+374    	; 0x3600 <_ZN16Adafruit_SSD130613drawFastHLineEiiij+0x2ac>
    348a:	a9 1b       	sub	r26, r25
    348c:	e0 58       	subi	r30, 0x80	; 128
    348e:	ff 4f       	sbci	r31, 0xFF	; 255
    3490:	a8 30       	cpi	r26, 0x08	; 8
    3492:	48 f1       	brcs	.+82     	; 0x34e6 <_ZN16Adafruit_SSD130613drawFastHLineEiiij+0x192>
    3494:	02 30       	cpi	r16, 0x02	; 2
    3496:	11 05       	cpc	r17, r1
    3498:	59 f4       	brne	.+22     	; 0x34b0 <_ZN16Adafruit_SSD130613drawFastHLineEiiij+0x15c>
    349a:	ef 01       	movw	r28, r30
    349c:	8a 2f       	mov	r24, r26
    349e:	98 81       	ld	r25, Y
    34a0:	90 95       	com	r25
    34a2:	98 83       	st	Y, r25
    34a4:	c0 58       	subi	r28, 0x80	; 128
    34a6:	df 4f       	sbci	r29, 0xFF	; 255
    34a8:	88 50       	subi	r24, 0x08	; 8
    34aa:	88 30       	cpi	r24, 0x08	; 8
    34ac:	c0 f7       	brcc	.-16     	; 0x349e <_ZN16Adafruit_SSD130613drawFastHLineEiiij+0x14a>
    34ae:	33 c0       	rjmp	.+102    	; 0x3516 <_ZN16Adafruit_SSD130613drawFastHLineEiiij+0x1c2>
    34b0:	81 e0       	ldi	r24, 0x01	; 1
    34b2:	01 30       	cpi	r16, 0x01	; 1
    34b4:	11 05       	cpc	r17, r1
    34b6:	09 f0       	breq	.+2      	; 0x34ba <_ZN16Adafruit_SSD130613drawFastHLineEiiij+0x166>
    34b8:	80 e0       	ldi	r24, 0x00	; 0
    34ba:	81 95       	neg	r24
    34bc:	ef 01       	movw	r28, r30
    34be:	9a 2f       	mov	r25, r26
    34c0:	88 83       	st	Y, r24
    34c2:	c0 58       	subi	r28, 0x80	; 128
    34c4:	df 4f       	sbci	r29, 0xFF	; 255
    34c6:	98 50       	subi	r25, 0x08	; 8
    34c8:	98 30       	cpi	r25, 0x08	; 8
    34ca:	d0 f7       	brcc	.-12     	; 0x34c0 <_ZN16Adafruit_SSD130613drawFastHLineEiiij+0x16c>
    34cc:	88 ef       	ldi	r24, 0xF8	; 248
    34ce:	8a 0f       	add	r24, r26
    34d0:	86 95       	lsr	r24
    34d2:	86 95       	lsr	r24
    34d4:	86 95       	lsr	r24
    34d6:	60 e8       	ldi	r22, 0x80	; 128
    34d8:	86 9f       	mul	r24, r22
    34da:	e0 0d       	add	r30, r0
    34dc:	f1 1d       	adc	r31, r1
    34de:	11 24       	eor	r1, r1
    34e0:	e0 58       	subi	r30, 0x80	; 128
    34e2:	ff 4f       	sbci	r31, 0xFF	; 255
    34e4:	a7 70       	andi	r26, 0x07	; 7
    34e6:	aa 23       	and	r26, r26
    34e8:	09 f4       	brne	.+2      	; 0x34ec <_ZN16Adafruit_SSD130613drawFastHLineEiiij+0x198>
    34ea:	8a c0       	rjmp	.+276    	; 0x3600 <_ZN16Adafruit_SSD130613drawFastHLineEiiij+0x2ac>
    34ec:	b0 e0       	ldi	r27, 0x00	; 0
    34ee:	aa 5e       	subi	r26, 0xEA	; 234
    34f0:	be 4f       	sbci	r27, 0xFE	; 254
    34f2:	8c 91       	ld	r24, X
    34f4:	01 30       	cpi	r16, 0x01	; 1
    34f6:	11 05       	cpc	r17, r1
    34f8:	31 f0       	breq	.+12     	; 0x3506 <_ZN16Adafruit_SSD130613drawFastHLineEiiij+0x1b2>
    34fa:	40 f0       	brcs	.+16     	; 0x350c <_ZN16Adafruit_SSD130613drawFastHLineEiiij+0x1b8>
    34fc:	02 30       	cpi	r16, 0x02	; 2
    34fe:	11 05       	cpc	r17, r1
    3500:	09 f0       	breq	.+2      	; 0x3504 <_ZN16Adafruit_SSD130613drawFastHLineEiiij+0x1b0>
    3502:	7e c0       	rjmp	.+252    	; 0x3600 <_ZN16Adafruit_SSD130613drawFastHLineEiiij+0x2ac>
    3504:	1b c0       	rjmp	.+54     	; 0x353c <_ZN16Adafruit_SSD130613drawFastHLineEiiij+0x1e8>
    3506:	90 81       	ld	r25, Z
    3508:	89 2b       	or	r24, r25
    350a:	03 c0       	rjmp	.+6      	; 0x3512 <_ZN16Adafruit_SSD130613drawFastHLineEiiij+0x1be>
    350c:	80 95       	com	r24
    350e:	90 81       	ld	r25, Z
    3510:	89 23       	and	r24, r25
    3512:	80 83       	st	Z, r24
    3514:	75 c0       	rjmp	.+234    	; 0x3600 <_ZN16Adafruit_SSD130613drawFastHLineEiiij+0x2ac>
    3516:	88 ef       	ldi	r24, 0xF8	; 248
    3518:	8a 0f       	add	r24, r26
    351a:	86 95       	lsr	r24
    351c:	86 95       	lsr	r24
    351e:	86 95       	lsr	r24
    3520:	70 e8       	ldi	r23, 0x80	; 128
    3522:	87 9f       	mul	r24, r23
    3524:	e0 0d       	add	r30, r0
    3526:	f1 1d       	adc	r31, r1
    3528:	11 24       	eor	r1, r1
    352a:	e0 58       	subi	r30, 0x80	; 128
    352c:	ff 4f       	sbci	r31, 0xFF	; 255
    352e:	a7 70       	andi	r26, 0x07	; 7
    3530:	09 f4       	brne	.+2      	; 0x3534 <_ZN16Adafruit_SSD130613drawFastHLineEiiij+0x1e0>
    3532:	66 c0       	rjmp	.+204    	; 0x3600 <_ZN16Adafruit_SSD130613drawFastHLineEiiij+0x2ac>
    3534:	b0 e0       	ldi	r27, 0x00	; 0
    3536:	aa 5e       	subi	r26, 0xEA	; 234
    3538:	be 4f       	sbci	r27, 0xFE	; 254
    353a:	8c 91       	ld	r24, X
    353c:	90 81       	ld	r25, Z
    353e:	89 27       	eor	r24, r25
    3540:	e8 cf       	rjmp	.-48     	; 0x3512 <_ZN16Adafruit_SSD130613drawFastHLineEiiij+0x1be>
    3542:	57 fd       	sbrc	r21, 7
    3544:	5d c0       	rjmp	.+186    	; 0x3600 <_ZN16Adafruit_SSD130613drawFastHLineEiiij+0x2ac>
    3546:	16 96       	adiw	r26, 0x06	; 6
    3548:	8d 91       	ld	r24, X+
    354a:	9c 91       	ld	r25, X
    354c:	17 97       	sbiw	r26, 0x07	; 7
    354e:	48 17       	cp	r20, r24
    3550:	59 07       	cpc	r21, r25
    3552:	0c f0       	brlt	.+2      	; 0x3556 <_ZN16Adafruit_SSD130613drawFastHLineEiiij+0x202>
    3554:	55 c0       	rjmp	.+170    	; 0x3600 <_ZN16Adafruit_SSD130613drawFastHLineEiiij+0x2ac>
    3556:	f7 ff       	sbrs	r31, 7
    3558:	04 c0       	rjmp	.+8      	; 0x3562 <_ZN16Adafruit_SSD130613drawFastHLineEiiij+0x20e>
    355a:	2e 0f       	add	r18, r30
    355c:	3f 1f       	adc	r19, r31
    355e:	e0 e0       	ldi	r30, 0x00	; 0
    3560:	f0 e0       	ldi	r31, 0x00	; 0
    3562:	14 96       	adiw	r26, 0x04	; 4
    3564:	8d 91       	ld	r24, X+
    3566:	9c 91       	ld	r25, X
    3568:	15 97       	sbiw	r26, 0x05	; 5
    356a:	bf 01       	movw	r22, r30
    356c:	62 0f       	add	r22, r18
    356e:	73 1f       	adc	r23, r19
    3570:	86 17       	cp	r24, r22
    3572:	97 07       	cpc	r25, r23
    3574:	1c f4       	brge	.+6      	; 0x357c <_ZN16Adafruit_SSD130613drawFastHLineEiiij+0x228>
    3576:	9c 01       	movw	r18, r24
    3578:	2e 1b       	sub	r18, r30
    357a:	3f 0b       	sbc	r19, r31
    357c:	12 16       	cp	r1, r18
    357e:	13 06       	cpc	r1, r19
    3580:	0c f0       	brlt	.+2      	; 0x3584 <_ZN16Adafruit_SSD130613drawFastHLineEiiij+0x230>
    3582:	3e c0       	rjmp	.+124    	; 0x3600 <_ZN16Adafruit_SSD130613drawFastHLineEiiij+0x2ac>
    3584:	ca 01       	movw	r24, r20
    3586:	57 fd       	sbrc	r21, 7
    3588:	07 96       	adiw	r24, 0x07	; 7
    358a:	63 e0       	ldi	r22, 0x03	; 3
    358c:	95 95       	asr	r25
    358e:	87 95       	ror	r24
    3590:	6a 95       	dec	r22
    3592:	e1 f7       	brne	.-8      	; 0x358c <_ZN16Adafruit_SSD130613drawFastHLineEiiij+0x238>
    3594:	96 95       	lsr	r25
    3596:	98 2f       	mov	r25, r24
    3598:	88 27       	eor	r24, r24
    359a:	97 95       	ror	r25
    359c:	87 95       	ror	r24
    359e:	e8 0f       	add	r30, r24
    35a0:	f9 1f       	adc	r31, r25
    35a2:	ea 5d       	subi	r30, 0xDA	; 218
    35a4:	fe 4f       	sbci	r31, 0xFE	; 254
    35a6:	47 70       	andi	r20, 0x07	; 7
    35a8:	55 27       	eor	r21, r21
    35aa:	81 e0       	ldi	r24, 0x01	; 1
    35ac:	90 e0       	ldi	r25, 0x00	; 0
    35ae:	01 c0       	rjmp	.+2      	; 0x35b2 <_ZN16Adafruit_SSD130613drawFastHLineEiiij+0x25e>
    35b0:	88 0f       	add	r24, r24
    35b2:	4a 95       	dec	r20
    35b4:	ea f7       	brpl	.-6      	; 0x35b0 <_ZN16Adafruit_SSD130613drawFastHLineEiiij+0x25c>
    35b6:	48 2f       	mov	r20, r24
    35b8:	01 30       	cpi	r16, 0x01	; 1
    35ba:	11 05       	cpc	r17, r1
    35bc:	39 f0       	breq	.+14     	; 0x35cc <_ZN16Adafruit_SSD130613drawFastHLineEiiij+0x278>
    35be:	78 f0       	brcs	.+30     	; 0x35de <_ZN16Adafruit_SSD130613drawFastHLineEiiij+0x28a>
    35c0:	02 30       	cpi	r16, 0x02	; 2
    35c2:	11 05       	cpc	r17, r1
    35c4:	e9 f4       	brne	.+58     	; 0x3600 <_ZN16Adafruit_SSD130613drawFastHLineEiiij+0x2ac>
    35c6:	2e 0f       	add	r18, r30
    35c8:	3f 1f       	adc	r19, r31
    35ca:	13 c0       	rjmp	.+38     	; 0x35f2 <_ZN16Adafruit_SSD130613drawFastHLineEiiij+0x29e>
    35cc:	2e 0f       	add	r18, r30
    35ce:	3f 1f       	adc	r19, r31
    35d0:	e2 17       	cp	r30, r18
    35d2:	f3 07       	cpc	r31, r19
    35d4:	a9 f0       	breq	.+42     	; 0x3600 <_ZN16Adafruit_SSD130613drawFastHLineEiiij+0x2ac>
    35d6:	80 81       	ld	r24, Z
    35d8:	84 2b       	or	r24, r20
    35da:	81 93       	st	Z+, r24
    35dc:	f9 cf       	rjmp	.-14     	; 0x35d0 <_ZN16Adafruit_SSD130613drawFastHLineEiiij+0x27c>
    35de:	80 95       	com	r24
    35e0:	2e 0f       	add	r18, r30
    35e2:	3f 1f       	adc	r19, r31
    35e4:	e2 17       	cp	r30, r18
    35e6:	f3 07       	cpc	r31, r19
    35e8:	59 f0       	breq	.+22     	; 0x3600 <_ZN16Adafruit_SSD130613drawFastHLineEiiij+0x2ac>
    35ea:	90 81       	ld	r25, Z
    35ec:	98 23       	and	r25, r24
    35ee:	91 93       	st	Z+, r25
    35f0:	f9 cf       	rjmp	.-14     	; 0x35e4 <_ZN16Adafruit_SSD130613drawFastHLineEiiij+0x290>
    35f2:	e2 17       	cp	r30, r18
    35f4:	f3 07       	cpc	r31, r19
    35f6:	21 f0       	breq	.+8      	; 0x3600 <_ZN16Adafruit_SSD130613drawFastHLineEiiij+0x2ac>
    35f8:	80 81       	ld	r24, Z
    35fa:	84 27       	eor	r24, r20
    35fc:	81 93       	st	Z+, r24
    35fe:	f9 cf       	rjmp	.-14     	; 0x35f2 <_ZN16Adafruit_SSD130613drawFastHLineEiiij+0x29e>
    3600:	df 91       	pop	r29
    3602:	cf 91       	pop	r28
    3604:	1f 91       	pop	r17
    3606:	0f 91       	pop	r16
    3608:	08 95       	ret

0000360a <_ZN16Adafruit_SSD130613drawFastVLineEiiij>:
    360a:	0f 93       	push	r16
    360c:	1f 93       	push	r17
    360e:	cf 93       	push	r28
    3610:	df 93       	push	r29
    3612:	dc 01       	movw	r26, r24
    3614:	55 96       	adiw	r26, 0x15	; 21
    3616:	8c 91       	ld	r24, X
    3618:	55 97       	sbiw	r26, 0x15	; 21
    361a:	82 30       	cpi	r24, 0x02	; 2
    361c:	71 f0       	breq	.+28     	; 0x363a <_ZN16Adafruit_SSD130613drawFastVLineEiiij+0x30>
    361e:	83 30       	cpi	r24, 0x03	; 3
    3620:	09 f1       	breq	.+66     	; 0x3664 <_ZN16Adafruit_SSD130613drawFastVLineEiiij+0x5a>
    3622:	81 30       	cpi	r24, 0x01	; 1
    3624:	09 f0       	breq	.+2      	; 0x3628 <_ZN16Adafruit_SSD130613drawFastVLineEiiij+0x1e>
    3626:	8c c0       	rjmp	.+280    	; 0x3740 <_ZN16Adafruit_SSD130613drawFastVLineEiiij+0x136>
    3628:	14 96       	adiw	r26, 0x04	; 4
    362a:	ed 91       	ld	r30, X+
    362c:	fc 91       	ld	r31, X
    362e:	15 97       	sbiw	r26, 0x05	; 5
    3630:	e4 1b       	sub	r30, r20
    3632:	f5 0b       	sbc	r31, r21
    3634:	e2 1b       	sub	r30, r18
    3636:	f3 0b       	sbc	r31, r19
    3638:	20 c0       	rjmp	.+64     	; 0x367a <_ZN16Adafruit_SSD130613drawFastVLineEiiij+0x70>
    363a:	14 96       	adiw	r26, 0x04	; 4
    363c:	ed 91       	ld	r30, X+
    363e:	fc 91       	ld	r31, X
    3640:	15 97       	sbiw	r26, 0x05	; 5
    3642:	cf 01       	movw	r24, r30
    3644:	86 1b       	sub	r24, r22
    3646:	97 0b       	sbc	r25, r23
    3648:	bc 01       	movw	r22, r24
    364a:	61 50       	subi	r22, 0x01	; 1
    364c:	71 09       	sbc	r23, r1
    364e:	16 96       	adiw	r26, 0x06	; 6
    3650:	ed 91       	ld	r30, X+
    3652:	fc 91       	ld	r31, X
    3654:	17 97       	sbiw	r26, 0x07	; 7
    3656:	cf 01       	movw	r24, r30
    3658:	84 1b       	sub	r24, r20
    365a:	95 0b       	sbc	r25, r21
    365c:	ac 01       	movw	r20, r24
    365e:	42 1b       	sub	r20, r18
    3660:	53 0b       	sbc	r21, r19
    3662:	6e c0       	rjmp	.+220    	; 0x3740 <_ZN16Adafruit_SSD130613drawFastVLineEiiij+0x136>
    3664:	16 96       	adiw	r26, 0x06	; 6
    3666:	ed 91       	ld	r30, X+
    3668:	fc 91       	ld	r31, X
    366a:	17 97       	sbiw	r26, 0x07	; 7
    366c:	cf 01       	movw	r24, r30
    366e:	86 1b       	sub	r24, r22
    3670:	97 0b       	sbc	r25, r23
    3672:	bc 01       	movw	r22, r24
    3674:	61 50       	subi	r22, 0x01	; 1
    3676:	71 09       	sbc	r23, r1
    3678:	fa 01       	movw	r30, r20
    367a:	77 fd       	sbrc	r23, 7
    367c:	1b c1       	rjmp	.+566    	; 0x38b4 <_ZN16Adafruit_SSD130613drawFastVLineEiiij+0x2aa>
    367e:	16 96       	adiw	r26, 0x06	; 6
    3680:	8d 91       	ld	r24, X+
    3682:	9c 91       	ld	r25, X
    3684:	17 97       	sbiw	r26, 0x07	; 7
    3686:	68 17       	cp	r22, r24
    3688:	79 07       	cpc	r23, r25
    368a:	0c f0       	brlt	.+2      	; 0x368e <_ZN16Adafruit_SSD130613drawFastVLineEiiij+0x84>
    368c:	13 c1       	rjmp	.+550    	; 0x38b4 <_ZN16Adafruit_SSD130613drawFastVLineEiiij+0x2aa>
    368e:	f7 ff       	sbrs	r31, 7
    3690:	04 c0       	rjmp	.+8      	; 0x369a <_ZN16Adafruit_SSD130613drawFastVLineEiiij+0x90>
    3692:	2e 0f       	add	r18, r30
    3694:	3f 1f       	adc	r19, r31
    3696:	e0 e0       	ldi	r30, 0x00	; 0
    3698:	f0 e0       	ldi	r31, 0x00	; 0
    369a:	14 96       	adiw	r26, 0x04	; 4
    369c:	8d 91       	ld	r24, X+
    369e:	9c 91       	ld	r25, X
    36a0:	15 97       	sbiw	r26, 0x05	; 5
    36a2:	af 01       	movw	r20, r30
    36a4:	42 0f       	add	r20, r18
    36a6:	53 1f       	adc	r21, r19
    36a8:	84 17       	cp	r24, r20
    36aa:	95 07       	cpc	r25, r21
    36ac:	1c f4       	brge	.+6      	; 0x36b4 <_ZN16Adafruit_SSD130613drawFastVLineEiiij+0xaa>
    36ae:	9c 01       	movw	r18, r24
    36b0:	2e 1b       	sub	r18, r30
    36b2:	3f 0b       	sbc	r19, r31
    36b4:	12 16       	cp	r1, r18
    36b6:	13 06       	cpc	r1, r19
    36b8:	0c f0       	brlt	.+2      	; 0x36bc <_ZN16Adafruit_SSD130613drawFastVLineEiiij+0xb2>
    36ba:	fc c0       	rjmp	.+504    	; 0x38b4 <_ZN16Adafruit_SSD130613drawFastVLineEiiij+0x2aa>
    36bc:	cb 01       	movw	r24, r22
    36be:	77 fd       	sbrc	r23, 7
    36c0:	07 96       	adiw	r24, 0x07	; 7
    36c2:	43 e0       	ldi	r20, 0x03	; 3
    36c4:	95 95       	asr	r25
    36c6:	87 95       	ror	r24
    36c8:	4a 95       	dec	r20
    36ca:	e1 f7       	brne	.-8      	; 0x36c4 <_ZN16Adafruit_SSD130613drawFastVLineEiiij+0xba>
    36cc:	96 95       	lsr	r25
    36ce:	98 2f       	mov	r25, r24
    36d0:	88 27       	eor	r24, r24
    36d2:	97 95       	ror	r25
    36d4:	87 95       	ror	r24
    36d6:	e8 0f       	add	r30, r24
    36d8:	f9 1f       	adc	r31, r25
    36da:	ea 5d       	subi	r30, 0xDA	; 218
    36dc:	fe 4f       	sbci	r31, 0xFE	; 254
    36de:	67 70       	andi	r22, 0x07	; 7
    36e0:	77 27       	eor	r23, r23
    36e2:	81 e0       	ldi	r24, 0x01	; 1
    36e4:	90 e0       	ldi	r25, 0x00	; 0
    36e6:	01 c0       	rjmp	.+2      	; 0x36ea <_ZN16Adafruit_SSD130613drawFastVLineEiiij+0xe0>
    36e8:	88 0f       	add	r24, r24
    36ea:	6a 95       	dec	r22
    36ec:	ea f7       	brpl	.-6      	; 0x36e8 <_ZN16Adafruit_SSD130613drawFastVLineEiiij+0xde>
    36ee:	48 2f       	mov	r20, r24
    36f0:	01 30       	cpi	r16, 0x01	; 1
    36f2:	11 05       	cpc	r17, r1
    36f4:	41 f0       	breq	.+16     	; 0x3706 <_ZN16Adafruit_SSD130613drawFastVLineEiiij+0xfc>
    36f6:	88 f0       	brcs	.+34     	; 0x371a <_ZN16Adafruit_SSD130613drawFastVLineEiiij+0x110>
    36f8:	02 30       	cpi	r16, 0x02	; 2
    36fa:	11 05       	cpc	r17, r1
    36fc:	09 f0       	breq	.+2      	; 0x3700 <_ZN16Adafruit_SSD130613drawFastVLineEiiij+0xf6>
    36fe:	da c0       	rjmp	.+436    	; 0x38b4 <_ZN16Adafruit_SSD130613drawFastVLineEiiij+0x2aa>
    3700:	2e 0f       	add	r18, r30
    3702:	3f 1f       	adc	r19, r31
    3704:	15 c0       	rjmp	.+42     	; 0x3730 <_ZN16Adafruit_SSD130613drawFastVLineEiiij+0x126>
    3706:	2e 0f       	add	r18, r30
    3708:	3f 1f       	adc	r19, r31
    370a:	e2 17       	cp	r30, r18
    370c:	f3 07       	cpc	r31, r19
    370e:	09 f4       	brne	.+2      	; 0x3712 <_ZN16Adafruit_SSD130613drawFastVLineEiiij+0x108>
    3710:	d1 c0       	rjmp	.+418    	; 0x38b4 <_ZN16Adafruit_SSD130613drawFastVLineEiiij+0x2aa>
    3712:	80 81       	ld	r24, Z
    3714:	84 2b       	or	r24, r20
    3716:	81 93       	st	Z+, r24
    3718:	f8 cf       	rjmp	.-16     	; 0x370a <_ZN16Adafruit_SSD130613drawFastVLineEiiij+0x100>
    371a:	80 95       	com	r24
    371c:	2e 0f       	add	r18, r30
    371e:	3f 1f       	adc	r19, r31
    3720:	e2 17       	cp	r30, r18
    3722:	f3 07       	cpc	r31, r19
    3724:	09 f4       	brne	.+2      	; 0x3728 <_ZN16Adafruit_SSD130613drawFastVLineEiiij+0x11e>
    3726:	c6 c0       	rjmp	.+396    	; 0x38b4 <_ZN16Adafruit_SSD130613drawFastVLineEiiij+0x2aa>
    3728:	90 81       	ld	r25, Z
    372a:	98 23       	and	r25, r24
    372c:	91 93       	st	Z+, r25
    372e:	f8 cf       	rjmp	.-16     	; 0x3720 <_ZN16Adafruit_SSD130613drawFastVLineEiiij+0x116>
    3730:	e2 17       	cp	r30, r18
    3732:	f3 07       	cpc	r31, r19
    3734:	09 f4       	brne	.+2      	; 0x3738 <_ZN16Adafruit_SSD130613drawFastVLineEiiij+0x12e>
    3736:	be c0       	rjmp	.+380    	; 0x38b4 <_ZN16Adafruit_SSD130613drawFastVLineEiiij+0x2aa>
    3738:	80 81       	ld	r24, Z
    373a:	84 27       	eor	r24, r20
    373c:	81 93       	st	Z+, r24
    373e:	f8 cf       	rjmp	.-16     	; 0x3730 <_ZN16Adafruit_SSD130613drawFastVLineEiiij+0x126>
    3740:	77 fd       	sbrc	r23, 7
    3742:	b8 c0       	rjmp	.+368    	; 0x38b4 <_ZN16Adafruit_SSD130613drawFastVLineEiiij+0x2aa>
    3744:	14 96       	adiw	r26, 0x04	; 4
    3746:	8d 91       	ld	r24, X+
    3748:	9c 91       	ld	r25, X
    374a:	15 97       	sbiw	r26, 0x05	; 5
    374c:	68 17       	cp	r22, r24
    374e:	79 07       	cpc	r23, r25
    3750:	0c f0       	brlt	.+2      	; 0x3754 <_ZN16Adafruit_SSD130613drawFastVLineEiiij+0x14a>
    3752:	b0 c0       	rjmp	.+352    	; 0x38b4 <_ZN16Adafruit_SSD130613drawFastVLineEiiij+0x2aa>
    3754:	57 ff       	sbrs	r21, 7
    3756:	04 c0       	rjmp	.+8      	; 0x3760 <_ZN16Adafruit_SSD130613drawFastVLineEiiij+0x156>
    3758:	24 0f       	add	r18, r20
    375a:	35 1f       	adc	r19, r21
    375c:	40 e0       	ldi	r20, 0x00	; 0
    375e:	50 e0       	ldi	r21, 0x00	; 0
    3760:	16 96       	adiw	r26, 0x06	; 6
    3762:	8d 91       	ld	r24, X+
    3764:	9c 91       	ld	r25, X
    3766:	17 97       	sbiw	r26, 0x07	; 7
    3768:	fa 01       	movw	r30, r20
    376a:	e2 0f       	add	r30, r18
    376c:	f3 1f       	adc	r31, r19
    376e:	8e 17       	cp	r24, r30
    3770:	9f 07       	cpc	r25, r31
    3772:	1c f4       	brge	.+6      	; 0x377a <_ZN16Adafruit_SSD130613drawFastVLineEiiij+0x170>
    3774:	9c 01       	movw	r18, r24
    3776:	24 1b       	sub	r18, r20
    3778:	35 0b       	sbc	r19, r21
    377a:	12 16       	cp	r1, r18
    377c:	13 06       	cpc	r1, r19
    377e:	0c f0       	brlt	.+2      	; 0x3782 <_ZN16Adafruit_SSD130613drawFastVLineEiiij+0x178>
    3780:	99 c0       	rjmp	.+306    	; 0x38b4 <_ZN16Adafruit_SSD130613drawFastVLineEiiij+0x2aa>
    3782:	a2 2f       	mov	r26, r18
    3784:	84 2f       	mov	r24, r20
    3786:	86 95       	lsr	r24
    3788:	86 95       	lsr	r24
    378a:	86 95       	lsr	r24
    378c:	90 e8       	ldi	r25, 0x80	; 128
    378e:	89 9f       	mul	r24, r25
    3790:	60 0d       	add	r22, r0
    3792:	71 1d       	adc	r23, r1
    3794:	11 24       	eor	r1, r1
    3796:	fb 01       	movw	r30, r22
    3798:	ea 5d       	subi	r30, 0xDA	; 218
    379a:	fe 4f       	sbci	r31, 0xFE	; 254
    379c:	47 70       	andi	r20, 0x07	; 7
    379e:	a9 f1       	breq	.+106    	; 0x380a <_ZN16Adafruit_SSD130613drawFastVLineEiiij+0x200>
    37a0:	98 e0       	ldi	r25, 0x08	; 8
    37a2:	94 1b       	sub	r25, r20
    37a4:	49 2f       	mov	r20, r25
    37a6:	50 e0       	ldi	r21, 0x00	; 0
    37a8:	ea 01       	movw	r28, r20
    37aa:	c2 5e       	subi	r28, 0xE2	; 226
    37ac:	de 4f       	sbci	r29, 0xFE	; 254
    37ae:	88 81       	ld	r24, Y
    37b0:	29 17       	cp	r18, r25
    37b2:	90 f4       	brcc	.+36     	; 0x37d8 <_ZN16Adafruit_SSD130613drawFastVLineEiiij+0x1ce>
    37b4:	42 1b       	sub	r20, r18
    37b6:	51 09       	sbc	r21, r1
    37b8:	2f ef       	ldi	r18, 0xFF	; 255
    37ba:	30 e0       	ldi	r19, 0x00	; 0
    37bc:	02 c0       	rjmp	.+4      	; 0x37c2 <_ZN16Adafruit_SSD130613drawFastVLineEiiij+0x1b8>
    37be:	35 95       	asr	r19
    37c0:	27 95       	ror	r18
    37c2:	4a 95       	dec	r20
    37c4:	e2 f7       	brpl	.-8      	; 0x37be <_ZN16Adafruit_SSD130613drawFastVLineEiiij+0x1b4>
    37c6:	82 23       	and	r24, r18
    37c8:	01 30       	cpi	r16, 0x01	; 1
    37ca:	11 05       	cpc	r17, r1
    37cc:	41 f0       	breq	.+16     	; 0x37de <_ZN16Adafruit_SSD130613drawFastVLineEiiij+0x1d4>
    37ce:	68 f0       	brcs	.+26     	; 0x37ea <_ZN16Adafruit_SSD130613drawFastVLineEiiij+0x1e0>
    37d0:	02 30       	cpi	r16, 0x02	; 2
    37d2:	11 05       	cpc	r17, r1
    37d4:	89 f0       	breq	.+34     	; 0x37f8 <_ZN16Adafruit_SSD130613drawFastVLineEiiij+0x1ee>
    37d6:	6e c0       	rjmp	.+220    	; 0x38b4 <_ZN16Adafruit_SSD130613drawFastVLineEiiij+0x2aa>
    37d8:	01 30       	cpi	r16, 0x01	; 1
    37da:	11 05       	cpc	r17, r1
    37dc:	19 f4       	brne	.+6      	; 0x37e4 <_ZN16Adafruit_SSD130613drawFastVLineEiiij+0x1da>
    37de:	20 81       	ld	r18, Z
    37e0:	82 2b       	or	r24, r18
    37e2:	0c c0       	rjmp	.+24     	; 0x37fc <_ZN16Adafruit_SSD130613drawFastVLineEiiij+0x1f2>
    37e4:	01 30       	cpi	r16, 0x01	; 1
    37e6:	11 05       	cpc	r17, r1
    37e8:	20 f4       	brcc	.+8      	; 0x37f2 <_ZN16Adafruit_SSD130613drawFastVLineEiiij+0x1e8>
    37ea:	80 95       	com	r24
    37ec:	20 81       	ld	r18, Z
    37ee:	82 23       	and	r24, r18
    37f0:	05 c0       	rjmp	.+10     	; 0x37fc <_ZN16Adafruit_SSD130613drawFastVLineEiiij+0x1f2>
    37f2:	02 30       	cpi	r16, 0x02	; 2
    37f4:	11 05       	cpc	r17, r1
    37f6:	31 f4       	brne	.+12     	; 0x3804 <_ZN16Adafruit_SSD130613drawFastVLineEiiij+0x1fa>
    37f8:	20 81       	ld	r18, Z
    37fa:	82 27       	eor	r24, r18
    37fc:	80 83       	st	Z, r24
    37fe:	a9 17       	cp	r26, r25
    3800:	08 f4       	brcc	.+2      	; 0x3804 <_ZN16Adafruit_SSD130613drawFastVLineEiiij+0x1fa>
    3802:	58 c0       	rjmp	.+176    	; 0x38b4 <_ZN16Adafruit_SSD130613drawFastVLineEiiij+0x2aa>
    3804:	a9 1b       	sub	r26, r25
    3806:	e0 58       	subi	r30, 0x80	; 128
    3808:	ff 4f       	sbci	r31, 0xFF	; 255
    380a:	a8 30       	cpi	r26, 0x08	; 8
    380c:	48 f1       	brcs	.+82     	; 0x3860 <_ZN16Adafruit_SSD130613drawFastVLineEiiij+0x256>
    380e:	02 30       	cpi	r16, 0x02	; 2
    3810:	11 05       	cpc	r17, r1
    3812:	59 f4       	brne	.+22     	; 0x382a <_ZN16Adafruit_SSD130613drawFastVLineEiiij+0x220>
    3814:	ef 01       	movw	r28, r30
    3816:	8a 2f       	mov	r24, r26
    3818:	98 81       	ld	r25, Y
    381a:	90 95       	com	r25
    381c:	98 83       	st	Y, r25
    381e:	c0 58       	subi	r28, 0x80	; 128
    3820:	df 4f       	sbci	r29, 0xFF	; 255
    3822:	88 50       	subi	r24, 0x08	; 8
    3824:	88 30       	cpi	r24, 0x08	; 8
    3826:	c0 f7       	brcc	.-16     	; 0x3818 <_ZN16Adafruit_SSD130613drawFastVLineEiiij+0x20e>
    3828:	30 c0       	rjmp	.+96     	; 0x388a <_ZN16Adafruit_SSD130613drawFastVLineEiiij+0x280>
    382a:	81 e0       	ldi	r24, 0x01	; 1
    382c:	01 30       	cpi	r16, 0x01	; 1
    382e:	11 05       	cpc	r17, r1
    3830:	09 f0       	breq	.+2      	; 0x3834 <_ZN16Adafruit_SSD130613drawFastVLineEiiij+0x22a>
    3832:	80 e0       	ldi	r24, 0x00	; 0
    3834:	81 95       	neg	r24
    3836:	ef 01       	movw	r28, r30
    3838:	9a 2f       	mov	r25, r26
    383a:	88 83       	st	Y, r24
    383c:	c0 58       	subi	r28, 0x80	; 128
    383e:	df 4f       	sbci	r29, 0xFF	; 255
    3840:	98 50       	subi	r25, 0x08	; 8
    3842:	98 30       	cpi	r25, 0x08	; 8
    3844:	d0 f7       	brcc	.-12     	; 0x383a <_ZN16Adafruit_SSD130613drawFastVLineEiiij+0x230>
    3846:	88 ef       	ldi	r24, 0xF8	; 248
    3848:	8a 0f       	add	r24, r26
    384a:	86 95       	lsr	r24
    384c:	86 95       	lsr	r24
    384e:	86 95       	lsr	r24
    3850:	90 e8       	ldi	r25, 0x80	; 128
    3852:	89 9f       	mul	r24, r25
    3854:	e0 0d       	add	r30, r0
    3856:	f1 1d       	adc	r31, r1
    3858:	11 24       	eor	r1, r1
    385a:	e0 58       	subi	r30, 0x80	; 128
    385c:	ff 4f       	sbci	r31, 0xFF	; 255
    385e:	a7 70       	andi	r26, 0x07	; 7
    3860:	aa 23       	and	r26, r26
    3862:	41 f1       	breq	.+80     	; 0x38b4 <_ZN16Adafruit_SSD130613drawFastVLineEiiij+0x2aa>
    3864:	b0 e0       	ldi	r27, 0x00	; 0
    3866:	aa 5e       	subi	r26, 0xEA	; 234
    3868:	be 4f       	sbci	r27, 0xFE	; 254
    386a:	8c 91       	ld	r24, X
    386c:	01 30       	cpi	r16, 0x01	; 1
    386e:	11 05       	cpc	r17, r1
    3870:	29 f0       	breq	.+10     	; 0x387c <_ZN16Adafruit_SSD130613drawFastVLineEiiij+0x272>
    3872:	38 f0       	brcs	.+14     	; 0x3882 <_ZN16Adafruit_SSD130613drawFastVLineEiiij+0x278>
    3874:	02 30       	cpi	r16, 0x02	; 2
    3876:	11 05       	cpc	r17, r1
    3878:	e9 f4       	brne	.+58     	; 0x38b4 <_ZN16Adafruit_SSD130613drawFastVLineEiiij+0x2aa>
    387a:	19 c0       	rjmp	.+50     	; 0x38ae <_ZN16Adafruit_SSD130613drawFastVLineEiiij+0x2a4>
    387c:	90 81       	ld	r25, Z
    387e:	89 2b       	or	r24, r25
    3880:	18 c0       	rjmp	.+48     	; 0x38b2 <_ZN16Adafruit_SSD130613drawFastVLineEiiij+0x2a8>
    3882:	80 95       	com	r24
    3884:	90 81       	ld	r25, Z
    3886:	89 23       	and	r24, r25
    3888:	14 c0       	rjmp	.+40     	; 0x38b2 <_ZN16Adafruit_SSD130613drawFastVLineEiiij+0x2a8>
    388a:	88 ef       	ldi	r24, 0xF8	; 248
    388c:	8a 0f       	add	r24, r26
    388e:	86 95       	lsr	r24
    3890:	86 95       	lsr	r24
    3892:	86 95       	lsr	r24
    3894:	90 e8       	ldi	r25, 0x80	; 128
    3896:	89 9f       	mul	r24, r25
    3898:	e0 0d       	add	r30, r0
    389a:	f1 1d       	adc	r31, r1
    389c:	11 24       	eor	r1, r1
    389e:	e0 58       	subi	r30, 0x80	; 128
    38a0:	ff 4f       	sbci	r31, 0xFF	; 255
    38a2:	a7 70       	andi	r26, 0x07	; 7
    38a4:	39 f0       	breq	.+14     	; 0x38b4 <_ZN16Adafruit_SSD130613drawFastVLineEiiij+0x2aa>
    38a6:	b0 e0       	ldi	r27, 0x00	; 0
    38a8:	aa 5e       	subi	r26, 0xEA	; 234
    38aa:	be 4f       	sbci	r27, 0xFE	; 254
    38ac:	8c 91       	ld	r24, X
    38ae:	90 81       	ld	r25, Z
    38b0:	89 27       	eor	r24, r25
    38b2:	80 83       	st	Z, r24
    38b4:	df 91       	pop	r29
    38b6:	cf 91       	pop	r28
    38b8:	1f 91       	pop	r17
    38ba:	0f 91       	pop	r16
    38bc:	08 95       	ret

000038be <_ZN16Adafruit_SSD13069drawPixelEiij>:
    38be:	cf 92       	push	r12
    38c0:	df 92       	push	r13
    38c2:	ef 92       	push	r14
    38c4:	ff 92       	push	r15
    38c6:	0f 93       	push	r16
    38c8:	1f 93       	push	r17
    38ca:	cf 93       	push	r28
    38cc:	df 93       	push	r29
    38ce:	7c 01       	movw	r14, r24
    38d0:	8b 01       	movw	r16, r22
    38d2:	ea 01       	movw	r28, r20
    38d4:	69 01       	movw	r12, r18
    38d6:	77 fd       	sbrc	r23, 7
    38d8:	a0 c0       	rjmp	.+320    	; 0x3a1a <_ZN16Adafruit_SSD13069drawPixelEiij+0x15c>
    38da:	0e 94 a2 19 	call	0x3344	; 0x3344 <_ZNK12Adafruit_GFX5widthEv>
    38de:	08 17       	cp	r16, r24
    38e0:	19 07       	cpc	r17, r25
    38e2:	0c f0       	brlt	.+2      	; 0x38e6 <_ZN16Adafruit_SSD13069drawPixelEiij+0x28>
    38e4:	9a c0       	rjmp	.+308    	; 0x3a1a <_ZN16Adafruit_SSD13069drawPixelEiij+0x15c>
    38e6:	d7 fd       	sbrc	r29, 7
    38e8:	98 c0       	rjmp	.+304    	; 0x3a1a <_ZN16Adafruit_SSD13069drawPixelEiij+0x15c>
    38ea:	c7 01       	movw	r24, r14
    38ec:	0e 94 a6 19 	call	0x334c	; 0x334c <_ZNK12Adafruit_GFX6heightEv>
    38f0:	c8 17       	cp	r28, r24
    38f2:	d9 07       	cpc	r29, r25
    38f4:	0c f0       	brlt	.+2      	; 0x38f8 <_ZN16Adafruit_SSD13069drawPixelEiij+0x3a>
    38f6:	91 c0       	rjmp	.+290    	; 0x3a1a <_ZN16Adafruit_SSD13069drawPixelEiij+0x15c>
    38f8:	c7 01       	movw	r24, r14
    38fa:	0e 94 9f 19 	call	0x333e	; 0x333e <_ZNK12Adafruit_GFX11getRotationEv>
    38fe:	82 30       	cpi	r24, 0x02	; 2
    3900:	09 f0       	breq	.+2      	; 0x3904 <_ZN16Adafruit_SSD13069drawPixelEiij+0x46>
    3902:	7f c0       	rjmp	.+254    	; 0x3a02 <_ZN16Adafruit_SSD13069drawPixelEiij+0x144>
    3904:	f7 01       	movw	r30, r14
    3906:	84 81       	ldd	r24, Z+4	; 0x04
    3908:	95 81       	ldd	r25, Z+5	; 0x05
    390a:	9c 01       	movw	r18, r24
    390c:	20 1b       	sub	r18, r16
    390e:	31 0b       	sbc	r19, r17
    3910:	89 01       	movw	r16, r18
    3912:	01 50       	subi	r16, 0x01	; 1
    3914:	11 09       	sbc	r17, r1
    3916:	86 81       	ldd	r24, Z+6	; 0x06
    3918:	97 81       	ldd	r25, Z+7	; 0x07
    391a:	fc 01       	movw	r30, r24
    391c:	ec 1b       	sub	r30, r28
    391e:	fd 0b       	sbc	r31, r29
    3920:	ef 01       	movw	r28, r30
    3922:	21 97       	sbiw	r28, 0x01	; 1
    3924:	0b c0       	rjmp	.+22     	; 0x393c <_ZN16Adafruit_SSD13069drawPixelEiij+0x7e>
    3926:	81 30       	cpi	r24, 0x01	; 1
    3928:	49 f4       	brne	.+18     	; 0x393c <_ZN16Adafruit_SSD13069drawPixelEiij+0x7e>
    392a:	f7 01       	movw	r30, r14
    392c:	84 81       	ldd	r24, Z+4	; 0x04
    392e:	95 81       	ldd	r25, Z+5	; 0x05
    3930:	8c 1b       	sub	r24, r28
    3932:	9d 0b       	sbc	r25, r29
    3934:	e8 01       	movw	r28, r16
    3936:	8c 01       	movw	r16, r24
    3938:	01 50       	subi	r16, 0x01	; 1
    393a:	11 09       	sbc	r17, r1
    393c:	f1 e0       	ldi	r31, 0x01	; 1
    393e:	cf 16       	cp	r12, r31
    3940:	d1 04       	cpc	r13, r1
    3942:	31 f0       	breq	.+12     	; 0x3950 <_ZN16Adafruit_SSD13069drawPixelEiij+0x92>
    3944:	10 f1       	brcs	.+68     	; 0x398a <_ZN16Adafruit_SSD13069drawPixelEiij+0xcc>
    3946:	32 e0       	ldi	r19, 0x02	; 2
    3948:	c3 16       	cp	r12, r19
    394a:	d1 04       	cpc	r13, r1
    394c:	e1 f1       	breq	.+120    	; 0x39c6 <_ZN16Adafruit_SSD13069drawPixelEiij+0x108>
    394e:	65 c0       	rjmp	.+202    	; 0x3a1a <_ZN16Adafruit_SSD13069drawPixelEiij+0x15c>
    3950:	fe 01       	movw	r30, r28
    3952:	d7 fd       	sbrc	r29, 7
    3954:	37 96       	adiw	r30, 0x07	; 7
    3956:	43 e0       	ldi	r20, 0x03	; 3
    3958:	f5 95       	asr	r31
    395a:	e7 95       	ror	r30
    395c:	4a 95       	dec	r20
    395e:	e1 f7       	brne	.-8      	; 0x3958 <_ZN16Adafruit_SSD13069drawPixelEiij+0x9a>
    3960:	f6 95       	lsr	r31
    3962:	fe 2f       	mov	r31, r30
    3964:	ee 27       	eor	r30, r30
    3966:	f7 95       	ror	r31
    3968:	e7 95       	ror	r30
    396a:	0e 0f       	add	r16, r30
    396c:	1f 1f       	adc	r17, r31
    396e:	f8 01       	movw	r30, r16
    3970:	ea 5d       	subi	r30, 0xDA	; 218
    3972:	fe 4f       	sbci	r31, 0xFE	; 254
    3974:	c7 70       	andi	r28, 0x07	; 7
    3976:	dd 27       	eor	r29, r29
    3978:	81 e0       	ldi	r24, 0x01	; 1
    397a:	90 e0       	ldi	r25, 0x00	; 0
    397c:	01 c0       	rjmp	.+2      	; 0x3980 <_ZN16Adafruit_SSD13069drawPixelEiij+0xc2>
    397e:	88 0f       	add	r24, r24
    3980:	ca 95       	dec	r28
    3982:	ea f7       	brpl	.-6      	; 0x397e <_ZN16Adafruit_SSD13069drawPixelEiij+0xc0>
    3984:	90 81       	ld	r25, Z
    3986:	89 2b       	or	r24, r25
    3988:	3a c0       	rjmp	.+116    	; 0x39fe <_ZN16Adafruit_SSD13069drawPixelEiij+0x140>
    398a:	fe 01       	movw	r30, r28
    398c:	d7 fd       	sbrc	r29, 7
    398e:	37 96       	adiw	r30, 0x07	; 7
    3990:	23 e0       	ldi	r18, 0x03	; 3
    3992:	f5 95       	asr	r31
    3994:	e7 95       	ror	r30
    3996:	2a 95       	dec	r18
    3998:	e1 f7       	brne	.-8      	; 0x3992 <_ZN16Adafruit_SSD13069drawPixelEiij+0xd4>
    399a:	f6 95       	lsr	r31
    399c:	fe 2f       	mov	r31, r30
    399e:	ee 27       	eor	r30, r30
    39a0:	f7 95       	ror	r31
    39a2:	e7 95       	ror	r30
    39a4:	0e 0f       	add	r16, r30
    39a6:	1f 1f       	adc	r17, r31
    39a8:	f8 01       	movw	r30, r16
    39aa:	ea 5d       	subi	r30, 0xDA	; 218
    39ac:	fe 4f       	sbci	r31, 0xFE	; 254
    39ae:	c7 70       	andi	r28, 0x07	; 7
    39b0:	dd 27       	eor	r29, r29
    39b2:	81 e0       	ldi	r24, 0x01	; 1
    39b4:	90 e0       	ldi	r25, 0x00	; 0
    39b6:	01 c0       	rjmp	.+2      	; 0x39ba <_ZN16Adafruit_SSD13069drawPixelEiij+0xfc>
    39b8:	88 0f       	add	r24, r24
    39ba:	ca 95       	dec	r28
    39bc:	ea f7       	brpl	.-6      	; 0x39b8 <_ZN16Adafruit_SSD13069drawPixelEiij+0xfa>
    39be:	80 95       	com	r24
    39c0:	90 81       	ld	r25, Z
    39c2:	89 23       	and	r24, r25
    39c4:	1c c0       	rjmp	.+56     	; 0x39fe <_ZN16Adafruit_SSD13069drawPixelEiij+0x140>
    39c6:	fe 01       	movw	r30, r28
    39c8:	d7 fd       	sbrc	r29, 7
    39ca:	37 96       	adiw	r30, 0x07	; 7
    39cc:	83 e0       	ldi	r24, 0x03	; 3
    39ce:	f5 95       	asr	r31
    39d0:	e7 95       	ror	r30
    39d2:	8a 95       	dec	r24
    39d4:	e1 f7       	brne	.-8      	; 0x39ce <_ZN16Adafruit_SSD13069drawPixelEiij+0x110>
    39d6:	f6 95       	lsr	r31
    39d8:	fe 2f       	mov	r31, r30
    39da:	ee 27       	eor	r30, r30
    39dc:	f7 95       	ror	r31
    39de:	e7 95       	ror	r30
    39e0:	0e 0f       	add	r16, r30
    39e2:	1f 1f       	adc	r17, r31
    39e4:	f8 01       	movw	r30, r16
    39e6:	ea 5d       	subi	r30, 0xDA	; 218
    39e8:	fe 4f       	sbci	r31, 0xFE	; 254
    39ea:	c7 70       	andi	r28, 0x07	; 7
    39ec:	dd 27       	eor	r29, r29
    39ee:	81 e0       	ldi	r24, 0x01	; 1
    39f0:	90 e0       	ldi	r25, 0x00	; 0
    39f2:	01 c0       	rjmp	.+2      	; 0x39f6 <_ZN16Adafruit_SSD13069drawPixelEiij+0x138>
    39f4:	88 0f       	add	r24, r24
    39f6:	ca 95       	dec	r28
    39f8:	ea f7       	brpl	.-6      	; 0x39f4 <_ZN16Adafruit_SSD13069drawPixelEiij+0x136>
    39fa:	90 81       	ld	r25, Z
    39fc:	89 27       	eor	r24, r25
    39fe:	80 83       	st	Z, r24
    3a00:	0c c0       	rjmp	.+24     	; 0x3a1a <_ZN16Adafruit_SSD13069drawPixelEiij+0x15c>
    3a02:	83 30       	cpi	r24, 0x03	; 3
    3a04:	09 f0       	breq	.+2      	; 0x3a08 <_ZN16Adafruit_SSD13069drawPixelEiij+0x14a>
    3a06:	8f cf       	rjmp	.-226    	; 0x3926 <_ZN16Adafruit_SSD13069drawPixelEiij+0x68>
    3a08:	f7 01       	movw	r30, r14
    3a0a:	86 81       	ldd	r24, Z+6	; 0x06
    3a0c:	97 81       	ldd	r25, Z+7	; 0x07
    3a0e:	80 1b       	sub	r24, r16
    3a10:	91 0b       	sbc	r25, r17
    3a12:	8e 01       	movw	r16, r28
    3a14:	ec 01       	movw	r28, r24
    3a16:	21 97       	sbiw	r28, 0x01	; 1
    3a18:	91 cf       	rjmp	.-222    	; 0x393c <_ZN16Adafruit_SSD13069drawPixelEiij+0x7e>
    3a1a:	df 91       	pop	r29
    3a1c:	cf 91       	pop	r28
    3a1e:	1f 91       	pop	r17
    3a20:	0f 91       	pop	r16
    3a22:	ff 90       	pop	r15
    3a24:	ef 90       	pop	r14
    3a26:	df 90       	pop	r13
    3a28:	cf 90       	pop	r12
    3a2a:	08 95       	ret

00003a2c <_ZN16Adafruit_SSD1306C1Ea>:
    3a2c:	1f 93       	push	r17
    3a2e:	cf 93       	push	r28
    3a30:	df 93       	push	r29
    3a32:	ec 01       	movw	r28, r24
    3a34:	16 2f       	mov	r17, r22
    3a36:	40 e2       	ldi	r20, 0x20	; 32
    3a38:	50 e0       	ldi	r21, 0x00	; 0
    3a3a:	60 e8       	ldi	r22, 0x80	; 128
    3a3c:	70 e0       	ldi	r23, 0x00	; 0
    3a3e:	0e 94 7c 16 	call	0x2cf8	; 0x2cf8 <_ZN12Adafruit_GFXC1Eii>
    3a42:	86 ea       	ldi	r24, 0xA6	; 166
    3a44:	93 e0       	ldi	r25, 0x03	; 3
    3a46:	99 83       	std	Y+1, r25	; 0x01
    3a48:	88 83       	st	Y, r24
    3a4a:	8f ef       	ldi	r24, 0xFF	; 255
    3a4c:	8c 8f       	std	Y+28, r24	; 0x1c
    3a4e:	88 a3       	std	Y+32, r24	; 0x20
    3a50:	8e 8f       	std	Y+30, r24	; 0x1e
    3a52:	8d 8f       	std	Y+29, r24	; 0x1d
    3a54:	1f 8f       	std	Y+31, r17	; 0x1f
    3a56:	df 91       	pop	r29
    3a58:	cf 91       	pop	r28
    3a5a:	1f 91       	pop	r17
    3a5c:	08 95       	ret

00003a5e <_ZN16Adafruit_SSD130612clearDisplayEv>:
    3a5e:	80 e0       	ldi	r24, 0x00	; 0
    3a60:	92 e0       	ldi	r25, 0x02	; 2
    3a62:	e6 e2       	ldi	r30, 0x26	; 38
    3a64:	f1 e0       	ldi	r31, 0x01	; 1
    3a66:	df 01       	movw	r26, r30
    3a68:	9c 01       	movw	r18, r24
    3a6a:	1d 92       	st	X+, r1
    3a6c:	21 50       	subi	r18, 0x01	; 1
    3a6e:	30 40       	sbci	r19, 0x00	; 0
    3a70:	e1 f7       	brne	.-8      	; 0x3a6a <_ZN16Adafruit_SSD130612clearDisplayEv+0xc>
    3a72:	08 95       	ret

00003a74 <_ZN16Adafruit_SSD130612fastSPIwriteEh>:
    3a74:	fc 01       	movw	r30, r24
    3a76:	81 a1       	ldd	r24, Z+33	; 0x21
    3a78:	88 23       	and	r24, r24
    3a7a:	39 f0       	breq	.+14     	; 0x3a8a <_ZN16Adafruit_SSD130612fastSPIwriteEh+0x16>
    3a7c:	6e bd       	out	0x2e, r22	; 46
    3a7e:	00 00       	nop
    3a80:	0d b4       	in	r0, 0x2d	; 45
    3a82:	07 fe       	sbrs	r0, 7
    3a84:	fd cf       	rjmp	.-6      	; 0x3a80 <_ZN16Adafruit_SSD130612fastSPIwriteEh+0xc>
    3a86:	8e b5       	in	r24, 0x2e	; 46
    3a88:	08 95       	ret
    3a8a:	28 e0       	ldi	r18, 0x08	; 8
    3a8c:	30 e0       	ldi	r19, 0x00	; 0
    3a8e:	90 e8       	ldi	r25, 0x80	; 128
    3a90:	a4 a1       	ldd	r26, Z+36	; 0x24
    3a92:	b5 a1       	ldd	r27, Z+37	; 0x25
    3a94:	4c 91       	ld	r20, X
    3a96:	83 a5       	ldd	r24, Z+43	; 0x2b
    3a98:	80 95       	com	r24
    3a9a:	84 23       	and	r24, r20
    3a9c:	8c 93       	st	X, r24
    3a9e:	a2 a1       	ldd	r26, Z+34	; 0x22
    3aa0:	b3 a1       	ldd	r27, Z+35	; 0x23
    3aa2:	82 a5       	ldd	r24, Z+42	; 0x2a
    3aa4:	46 2f       	mov	r20, r22
    3aa6:	49 23       	and	r20, r25
    3aa8:	19 f0       	breq	.+6      	; 0x3ab0 <_ZN16Adafruit_SSD130612fastSPIwriteEh+0x3c>
    3aaa:	4c 91       	ld	r20, X
    3aac:	84 2b       	or	r24, r20
    3aae:	03 c0       	rjmp	.+6      	; 0x3ab6 <_ZN16Adafruit_SSD130612fastSPIwriteEh+0x42>
    3ab0:	4c 91       	ld	r20, X
    3ab2:	80 95       	com	r24
    3ab4:	84 23       	and	r24, r20
    3ab6:	8c 93       	st	X, r24
    3ab8:	a4 a1       	ldd	r26, Z+36	; 0x24
    3aba:	b5 a1       	ldd	r27, Z+37	; 0x25
    3abc:	4c 91       	ld	r20, X
    3abe:	83 a5       	ldd	r24, Z+43	; 0x2b
    3ac0:	84 2b       	or	r24, r20
    3ac2:	8c 93       	st	X, r24
    3ac4:	96 95       	lsr	r25
    3ac6:	21 50       	subi	r18, 0x01	; 1
    3ac8:	31 09       	sbc	r19, r1
    3aca:	11 f7       	brne	.-60     	; 0x3a90 <_ZN16Adafruit_SSD130612fastSPIwriteEh+0x1c>
    3acc:	08 95       	ret

00003ace <_ZN16Adafruit_SSD130615ssd1306_commandEh>:
    3ace:	1f 93       	push	r17
    3ad0:	cf 93       	push	r28
    3ad2:	df 93       	push	r29
    3ad4:	ec 01       	movw	r28, r24
    3ad6:	16 2f       	mov	r17, r22
    3ad8:	8c 8d       	ldd	r24, Y+28	; 0x1c
    3ada:	8f 3f       	cpi	r24, 0xFF	; 255
    3adc:	09 f1       	breq	.+66     	; 0x3b20 <_ZN16Adafruit_SSD130615ssd1306_commandEh+0x52>
    3ade:	ee a1       	ldd	r30, Y+38	; 0x26
    3ae0:	ff a1       	ldd	r31, Y+39	; 0x27
    3ae2:	90 81       	ld	r25, Z
    3ae4:	8c a5       	ldd	r24, Y+44	; 0x2c
    3ae6:	89 2b       	or	r24, r25
    3ae8:	80 83       	st	Z, r24
    3aea:	e8 a5       	ldd	r30, Y+40	; 0x28
    3aec:	f9 a5       	ldd	r31, Y+41	; 0x29
    3aee:	90 81       	ld	r25, Z
    3af0:	8d a5       	ldd	r24, Y+45	; 0x2d
    3af2:	80 95       	com	r24
    3af4:	89 23       	and	r24, r25
    3af6:	80 83       	st	Z, r24
    3af8:	ee a1       	ldd	r30, Y+38	; 0x26
    3afa:	ff a1       	ldd	r31, Y+39	; 0x27
    3afc:	90 81       	ld	r25, Z
    3afe:	8c a5       	ldd	r24, Y+44	; 0x2c
    3b00:	80 95       	com	r24
    3b02:	89 23       	and	r24, r25
    3b04:	80 83       	st	Z, r24
    3b06:	ce 01       	movw	r24, r28
    3b08:	0e 94 3a 1d 	call	0x3a74	; 0x3a74 <_ZN16Adafruit_SSD130612fastSPIwriteEh>
    3b0c:	ee a1       	ldd	r30, Y+38	; 0x26
    3b0e:	ff a1       	ldd	r31, Y+39	; 0x27
    3b10:	90 81       	ld	r25, Z
    3b12:	8c a5       	ldd	r24, Y+44	; 0x2c
    3b14:	89 2b       	or	r24, r25
    3b16:	80 83       	st	Z, r24
    3b18:	df 91       	pop	r29
    3b1a:	cf 91       	pop	r28
    3b1c:	1f 91       	pop	r17
    3b1e:	08 95       	ret
    3b20:	6a 8d       	ldd	r22, Y+26	; 0x1a
    3b22:	06 2e       	mov	r0, r22
    3b24:	00 0c       	add	r0, r0
    3b26:	77 0b       	sbc	r23, r23
    3b28:	8b e2       	ldi	r24, 0x2B	; 43
    3b2a:	95 e0       	ldi	r25, 0x05	; 5
    3b2c:	0e 94 6c 20 	call	0x40d8	; 0x40d8 <_ZN7TwoWire17beginTransmissionEi>
    3b30:	60 e0       	ldi	r22, 0x00	; 0
    3b32:	8b e2       	ldi	r24, 0x2B	; 43
    3b34:	95 e0       	ldi	r25, 0x05	; 5
    3b36:	0e 94 19 20 	call	0x4032	; 0x4032 <_ZN7TwoWire5writeEh>
    3b3a:	61 2f       	mov	r22, r17
    3b3c:	8b e2       	ldi	r24, 0x2B	; 43
    3b3e:	95 e0       	ldi	r25, 0x05	; 5
    3b40:	0e 94 19 20 	call	0x4032	; 0x4032 <_ZN7TwoWire5writeEh>
    3b44:	8b e2       	ldi	r24, 0x2B	; 43
    3b46:	95 e0       	ldi	r25, 0x05	; 5
    3b48:	df 91       	pop	r29
    3b4a:	cf 91       	pop	r28
    3b4c:	1f 91       	pop	r17
    3b4e:	0c 94 81 20 	jmp	0x4102	; 0x4102 <_ZN7TwoWire15endTransmissionEv>

00003b52 <_ZN16Adafruit_SSD13065beginEhhb>:
    3b52:	0f 93       	push	r16
    3b54:	1f 93       	push	r17
    3b56:	cf 93       	push	r28
    3b58:	df 93       	push	r29
    3b5a:	ec 01       	movw	r28, r24
    3b5c:	16 2f       	mov	r17, r22
    3b5e:	02 2f       	mov	r16, r18
    3b60:	6b 8f       	std	Y+27, r22	; 0x1b
    3b62:	4a 8f       	std	Y+26, r20	; 0x1a
    3b64:	8c 8d       	ldd	r24, Y+28	; 0x1c
    3b66:	8f 3f       	cpi	r24, 0xFF	; 255
    3b68:	09 f4       	brne	.+2      	; 0x3b6c <_ZN16Adafruit_SSD13065beginEhhb+0x1a>
    3b6a:	8c c0       	rjmp	.+280    	; 0x3c84 <_ZN16Adafruit_SSD13065beginEhhb+0x132>
    3b6c:	61 e0       	ldi	r22, 0x01	; 1
    3b6e:	8e 8d       	ldd	r24, Y+30	; 0x1e
    3b70:	0e 94 38 13 	call	0x2670	; 0x2670 <pinMode>
    3b74:	61 e0       	ldi	r22, 0x01	; 1
    3b76:	88 a1       	ldd	r24, Y+32	; 0x20
    3b78:	0e 94 38 13 	call	0x2670	; 0x2670 <pinMode>
    3b7c:	88 a1       	ldd	r24, Y+32	; 0x20
    3b7e:	08 2e       	mov	r0, r24
    3b80:	00 0c       	add	r0, r0
    3b82:	99 0b       	sbc	r25, r25
    3b84:	fc 01       	movw	r30, r24
    3b86:	ec 55       	subi	r30, 0x5C	; 92
    3b88:	ff 4f       	sbci	r31, 0xFF	; 255
    3b8a:	e4 91       	lpm	r30, Z
    3b8c:	f0 e0       	ldi	r31, 0x00	; 0
    3b8e:	ee 0f       	add	r30, r30
    3b90:	ff 1f       	adc	r31, r31
    3b92:	ee 53       	subi	r30, 0x3E	; 62
    3b94:	ff 4f       	sbci	r31, 0xFF	; 255
    3b96:	25 91       	lpm	r18, Z+
    3b98:	34 91       	lpm	r19, Z
    3b9a:	3f a3       	std	Y+39, r19	; 0x27
    3b9c:	2e a3       	std	Y+38, r18	; 0x26
    3b9e:	fc 01       	movw	r30, r24
    3ba0:	e0 57       	subi	r30, 0x70	; 112
    3ba2:	ff 4f       	sbci	r31, 0xFF	; 255
    3ba4:	e4 91       	lpm	r30, Z
    3ba6:	ec a7       	std	Y+44, r30	; 0x2c
    3ba8:	8e 8d       	ldd	r24, Y+30	; 0x1e
    3baa:	08 2e       	mov	r0, r24
    3bac:	00 0c       	add	r0, r0
    3bae:	99 0b       	sbc	r25, r25
    3bb0:	fc 01       	movw	r30, r24
    3bb2:	ec 55       	subi	r30, 0x5C	; 92
    3bb4:	ff 4f       	sbci	r31, 0xFF	; 255
    3bb6:	e4 91       	lpm	r30, Z
    3bb8:	f0 e0       	ldi	r31, 0x00	; 0
    3bba:	ee 0f       	add	r30, r30
    3bbc:	ff 1f       	adc	r31, r31
    3bbe:	ee 53       	subi	r30, 0x3E	; 62
    3bc0:	ff 4f       	sbci	r31, 0xFF	; 255
    3bc2:	25 91       	lpm	r18, Z+
    3bc4:	34 91       	lpm	r19, Z
    3bc6:	39 a7       	std	Y+41, r19	; 0x29
    3bc8:	28 a7       	std	Y+40, r18	; 0x28
    3bca:	fc 01       	movw	r30, r24
    3bcc:	e0 57       	subi	r30, 0x70	; 112
    3bce:	ff 4f       	sbci	r31, 0xFF	; 255
    3bd0:	e4 91       	lpm	r30, Z
    3bd2:	ed a7       	std	Y+45, r30	; 0x2d
    3bd4:	89 a1       	ldd	r24, Y+33	; 0x21
    3bd6:	81 11       	cpse	r24, r1
    3bd8:	34 c0       	rjmp	.+104    	; 0x3c42 <_ZN16Adafruit_SSD13065beginEhhb+0xf0>
    3bda:	61 e0       	ldi	r22, 0x01	; 1
    3bdc:	8c 8d       	ldd	r24, Y+28	; 0x1c
    3bde:	0e 94 38 13 	call	0x2670	; 0x2670 <pinMode>
    3be2:	61 e0       	ldi	r22, 0x01	; 1
    3be4:	8d 8d       	ldd	r24, Y+29	; 0x1d
    3be6:	0e 94 38 13 	call	0x2670	; 0x2670 <pinMode>
    3bea:	8d 8d       	ldd	r24, Y+29	; 0x1d
    3bec:	08 2e       	mov	r0, r24
    3bee:	00 0c       	add	r0, r0
    3bf0:	99 0b       	sbc	r25, r25
    3bf2:	fc 01       	movw	r30, r24
    3bf4:	ec 55       	subi	r30, 0x5C	; 92
    3bf6:	ff 4f       	sbci	r31, 0xFF	; 255
    3bf8:	e4 91       	lpm	r30, Z
    3bfa:	f0 e0       	ldi	r31, 0x00	; 0
    3bfc:	ee 0f       	add	r30, r30
    3bfe:	ff 1f       	adc	r31, r31
    3c00:	ee 53       	subi	r30, 0x3E	; 62
    3c02:	ff 4f       	sbci	r31, 0xFF	; 255
    3c04:	25 91       	lpm	r18, Z+
    3c06:	34 91       	lpm	r19, Z
    3c08:	3d a3       	std	Y+37, r19	; 0x25
    3c0a:	2c a3       	std	Y+36, r18	; 0x24
    3c0c:	fc 01       	movw	r30, r24
    3c0e:	e0 57       	subi	r30, 0x70	; 112
    3c10:	ff 4f       	sbci	r31, 0xFF	; 255
    3c12:	e4 91       	lpm	r30, Z
    3c14:	eb a7       	std	Y+43, r30	; 0x2b
    3c16:	8c 8d       	ldd	r24, Y+28	; 0x1c
    3c18:	08 2e       	mov	r0, r24
    3c1a:	00 0c       	add	r0, r0
    3c1c:	99 0b       	sbc	r25, r25
    3c1e:	fc 01       	movw	r30, r24
    3c20:	ec 55       	subi	r30, 0x5C	; 92
    3c22:	ff 4f       	sbci	r31, 0xFF	; 255
    3c24:	e4 91       	lpm	r30, Z
    3c26:	f0 e0       	ldi	r31, 0x00	; 0
    3c28:	ee 0f       	add	r30, r30
    3c2a:	ff 1f       	adc	r31, r31
    3c2c:	ee 53       	subi	r30, 0x3E	; 62
    3c2e:	ff 4f       	sbci	r31, 0xFF	; 255
    3c30:	25 91       	lpm	r18, Z+
    3c32:	34 91       	lpm	r19, Z
    3c34:	3b a3       	std	Y+35, r19	; 0x23
    3c36:	2a a3       	std	Y+34, r18	; 0x22
    3c38:	fc 01       	movw	r30, r24
    3c3a:	e0 57       	subi	r30, 0x70	; 112
    3c3c:	ff 4f       	sbci	r31, 0xFF	; 255
    3c3e:	e4 91       	lpm	r30, Z
    3c40:	ea a7       	std	Y+42, r30	; 0x2a
    3c42:	89 a1       	ldd	r24, Y+33	; 0x21
    3c44:	88 23       	and	r24, r24
    3c46:	11 f1       	breq	.+68     	; 0x3c8c <_ZN16Adafruit_SSD13065beginEhhb+0x13a>
    3c48:	0e 94 63 1f 	call	0x3ec6	; 0x3ec6 <_ZN8SPIClass5beginEv>
    3c4c:	80 91 24 05 	lds	r24, 0x0524	; 0x800524 <_ZN8SPIClass13interruptModeE>
    3c50:	88 23       	and	r24, r24
    3c52:	99 f0       	breq	.+38     	; 0x3c7a <_ZN16Adafruit_SSD13065beginEhhb+0x128>
    3c54:	2f b7       	in	r18, 0x3f	; 63
    3c56:	f8 94       	cli
    3c58:	80 91 24 05 	lds	r24, 0x0524	; 0x800524 <_ZN8SPIClass13interruptModeE>
    3c5c:	81 30       	cpi	r24, 0x01	; 1
    3c5e:	59 f4       	brne	.+22     	; 0x3c76 <_ZN16Adafruit_SSD13065beginEhhb+0x124>
    3c60:	8d b3       	in	r24, 0x1d	; 29
    3c62:	80 93 22 05 	sts	0x0522, r24	; 0x800522 <_ZN8SPIClass13interruptSaveE>
    3c66:	9d b3       	in	r25, 0x1d	; 29
    3c68:	80 91 23 05 	lds	r24, 0x0523	; 0x800523 <_ZN8SPIClass13interruptMaskE>
    3c6c:	80 95       	com	r24
    3c6e:	89 23       	and	r24, r25
    3c70:	8d bb       	out	0x1d, r24	; 29
    3c72:	2f bf       	out	0x3f, r18	; 63
    3c74:	02 c0       	rjmp	.+4      	; 0x3c7a <_ZN16Adafruit_SSD13065beginEhhb+0x128>
    3c76:	20 93 22 05 	sts	0x0522, r18	; 0x800522 <_ZN8SPIClass13interruptSaveE>
    3c7a:	80 e5       	ldi	r24, 0x50	; 80
    3c7c:	8c bd       	out	0x2c, r24	; 44
    3c7e:	81 e0       	ldi	r24, 0x01	; 1
    3c80:	8d bd       	out	0x2d, r24	; 45
    3c82:	04 c0       	rjmp	.+8      	; 0x3c8c <_ZN16Adafruit_SSD13065beginEhhb+0x13a>
    3c84:	8b e2       	ldi	r24, 0x2B	; 43
    3c86:	95 e0       	ldi	r25, 0x05	; 5
    3c88:	0e 94 58 20 	call	0x40b0	; 0x40b0 <_ZN7TwoWire5beginEv>
    3c8c:	00 23       	and	r16, r16
    3c8e:	f1 f0       	breq	.+60     	; 0x3ccc <_ZN16Adafruit_SSD13065beginEhhb+0x17a>
    3c90:	8f 8d       	ldd	r24, Y+31	; 0x1f
    3c92:	87 fd       	sbrc	r24, 7
    3c94:	1b c0       	rjmp	.+54     	; 0x3ccc <_ZN16Adafruit_SSD13065beginEhhb+0x17a>
    3c96:	61 e0       	ldi	r22, 0x01	; 1
    3c98:	0e 94 38 13 	call	0x2670	; 0x2670 <pinMode>
    3c9c:	61 e0       	ldi	r22, 0x01	; 1
    3c9e:	8f 8d       	ldd	r24, Y+31	; 0x1f
    3ca0:	0e 94 74 13 	call	0x26e8	; 0x26e8 <digitalWrite>
    3ca4:	61 e0       	ldi	r22, 0x01	; 1
    3ca6:	70 e0       	ldi	r23, 0x00	; 0
    3ca8:	80 e0       	ldi	r24, 0x00	; 0
    3caa:	90 e0       	ldi	r25, 0x00	; 0
    3cac:	0e 94 98 12 	call	0x2530	; 0x2530 <delay>
    3cb0:	60 e0       	ldi	r22, 0x00	; 0
    3cb2:	8f 8d       	ldd	r24, Y+31	; 0x1f
    3cb4:	0e 94 74 13 	call	0x26e8	; 0x26e8 <digitalWrite>
    3cb8:	6a e0       	ldi	r22, 0x0A	; 10
    3cba:	70 e0       	ldi	r23, 0x00	; 0
    3cbc:	80 e0       	ldi	r24, 0x00	; 0
    3cbe:	90 e0       	ldi	r25, 0x00	; 0
    3cc0:	0e 94 98 12 	call	0x2530	; 0x2530 <delay>
    3cc4:	61 e0       	ldi	r22, 0x01	; 1
    3cc6:	8f 8d       	ldd	r24, Y+31	; 0x1f
    3cc8:	0e 94 74 13 	call	0x26e8	; 0x26e8 <digitalWrite>
    3ccc:	6e ea       	ldi	r22, 0xAE	; 174
    3cce:	ce 01       	movw	r24, r28
    3cd0:	0e 94 67 1d 	call	0x3ace	; 0x3ace <_ZN16Adafruit_SSD130615ssd1306_commandEh>
    3cd4:	65 ed       	ldi	r22, 0xD5	; 213
    3cd6:	ce 01       	movw	r24, r28
    3cd8:	0e 94 67 1d 	call	0x3ace	; 0x3ace <_ZN16Adafruit_SSD130615ssd1306_commandEh>
    3cdc:	60 e8       	ldi	r22, 0x80	; 128
    3cde:	ce 01       	movw	r24, r28
    3ce0:	0e 94 67 1d 	call	0x3ace	; 0x3ace <_ZN16Adafruit_SSD130615ssd1306_commandEh>
    3ce4:	68 ea       	ldi	r22, 0xA8	; 168
    3ce6:	ce 01       	movw	r24, r28
    3ce8:	0e 94 67 1d 	call	0x3ace	; 0x3ace <_ZN16Adafruit_SSD130615ssd1306_commandEh>
    3cec:	6f e1       	ldi	r22, 0x1F	; 31
    3cee:	ce 01       	movw	r24, r28
    3cf0:	0e 94 67 1d 	call	0x3ace	; 0x3ace <_ZN16Adafruit_SSD130615ssd1306_commandEh>
    3cf4:	63 ed       	ldi	r22, 0xD3	; 211
    3cf6:	ce 01       	movw	r24, r28
    3cf8:	0e 94 67 1d 	call	0x3ace	; 0x3ace <_ZN16Adafruit_SSD130615ssd1306_commandEh>
    3cfc:	60 e0       	ldi	r22, 0x00	; 0
    3cfe:	ce 01       	movw	r24, r28
    3d00:	0e 94 67 1d 	call	0x3ace	; 0x3ace <_ZN16Adafruit_SSD130615ssd1306_commandEh>
    3d04:	60 e4       	ldi	r22, 0x40	; 64
    3d06:	ce 01       	movw	r24, r28
    3d08:	0e 94 67 1d 	call	0x3ace	; 0x3ace <_ZN16Adafruit_SSD130615ssd1306_commandEh>
    3d0c:	6d e8       	ldi	r22, 0x8D	; 141
    3d0e:	ce 01       	movw	r24, r28
    3d10:	0e 94 67 1d 	call	0x3ace	; 0x3ace <_ZN16Adafruit_SSD130615ssd1306_commandEh>
    3d14:	11 30       	cpi	r17, 0x01	; 1
    3d16:	11 f4       	brne	.+4      	; 0x3d1c <_ZN16Adafruit_SSD13065beginEhhb+0x1ca>
    3d18:	60 e1       	ldi	r22, 0x10	; 16
    3d1a:	01 c0       	rjmp	.+2      	; 0x3d1e <_ZN16Adafruit_SSD13065beginEhhb+0x1cc>
    3d1c:	64 e1       	ldi	r22, 0x14	; 20
    3d1e:	ce 01       	movw	r24, r28
    3d20:	0e 94 67 1d 	call	0x3ace	; 0x3ace <_ZN16Adafruit_SSD130615ssd1306_commandEh>
    3d24:	60 e2       	ldi	r22, 0x20	; 32
    3d26:	ce 01       	movw	r24, r28
    3d28:	0e 94 67 1d 	call	0x3ace	; 0x3ace <_ZN16Adafruit_SSD130615ssd1306_commandEh>
    3d2c:	60 e0       	ldi	r22, 0x00	; 0
    3d2e:	ce 01       	movw	r24, r28
    3d30:	0e 94 67 1d 	call	0x3ace	; 0x3ace <_ZN16Adafruit_SSD130615ssd1306_commandEh>
    3d34:	61 ea       	ldi	r22, 0xA1	; 161
    3d36:	ce 01       	movw	r24, r28
    3d38:	0e 94 67 1d 	call	0x3ace	; 0x3ace <_ZN16Adafruit_SSD130615ssd1306_commandEh>
    3d3c:	68 ec       	ldi	r22, 0xC8	; 200
    3d3e:	ce 01       	movw	r24, r28
    3d40:	0e 94 67 1d 	call	0x3ace	; 0x3ace <_ZN16Adafruit_SSD130615ssd1306_commandEh>
    3d44:	6a ed       	ldi	r22, 0xDA	; 218
    3d46:	ce 01       	movw	r24, r28
    3d48:	0e 94 67 1d 	call	0x3ace	; 0x3ace <_ZN16Adafruit_SSD130615ssd1306_commandEh>
    3d4c:	62 e0       	ldi	r22, 0x02	; 2
    3d4e:	ce 01       	movw	r24, r28
    3d50:	0e 94 67 1d 	call	0x3ace	; 0x3ace <_ZN16Adafruit_SSD130615ssd1306_commandEh>
    3d54:	61 e8       	ldi	r22, 0x81	; 129
    3d56:	ce 01       	movw	r24, r28
    3d58:	0e 94 67 1d 	call	0x3ace	; 0x3ace <_ZN16Adafruit_SSD130615ssd1306_commandEh>
    3d5c:	6f e8       	ldi	r22, 0x8F	; 143
    3d5e:	ce 01       	movw	r24, r28
    3d60:	0e 94 67 1d 	call	0x3ace	; 0x3ace <_ZN16Adafruit_SSD130615ssd1306_commandEh>
    3d64:	69 ed       	ldi	r22, 0xD9	; 217
    3d66:	ce 01       	movw	r24, r28
    3d68:	0e 94 67 1d 	call	0x3ace	; 0x3ace <_ZN16Adafruit_SSD130615ssd1306_commandEh>
    3d6c:	11 30       	cpi	r17, 0x01	; 1
    3d6e:	11 f4       	brne	.+4      	; 0x3d74 <_ZN16Adafruit_SSD13065beginEhhb+0x222>
    3d70:	62 e2       	ldi	r22, 0x22	; 34
    3d72:	01 c0       	rjmp	.+2      	; 0x3d76 <_ZN16Adafruit_SSD13065beginEhhb+0x224>
    3d74:	61 ef       	ldi	r22, 0xF1	; 241
    3d76:	ce 01       	movw	r24, r28
    3d78:	0e 94 67 1d 	call	0x3ace	; 0x3ace <_ZN16Adafruit_SSD130615ssd1306_commandEh>
    3d7c:	6b ed       	ldi	r22, 0xDB	; 219
    3d7e:	ce 01       	movw	r24, r28
    3d80:	0e 94 67 1d 	call	0x3ace	; 0x3ace <_ZN16Adafruit_SSD130615ssd1306_commandEh>
    3d84:	60 e4       	ldi	r22, 0x40	; 64
    3d86:	ce 01       	movw	r24, r28
    3d88:	0e 94 67 1d 	call	0x3ace	; 0x3ace <_ZN16Adafruit_SSD130615ssd1306_commandEh>
    3d8c:	64 ea       	ldi	r22, 0xA4	; 164
    3d8e:	ce 01       	movw	r24, r28
    3d90:	0e 94 67 1d 	call	0x3ace	; 0x3ace <_ZN16Adafruit_SSD130615ssd1306_commandEh>
    3d94:	66 ea       	ldi	r22, 0xA6	; 166
    3d96:	ce 01       	movw	r24, r28
    3d98:	0e 94 67 1d 	call	0x3ace	; 0x3ace <_ZN16Adafruit_SSD130615ssd1306_commandEh>
    3d9c:	6e e2       	ldi	r22, 0x2E	; 46
    3d9e:	ce 01       	movw	r24, r28
    3da0:	0e 94 67 1d 	call	0x3ace	; 0x3ace <_ZN16Adafruit_SSD130615ssd1306_commandEh>
    3da4:	6f ea       	ldi	r22, 0xAF	; 175
    3da6:	ce 01       	movw	r24, r28
    3da8:	df 91       	pop	r29
    3daa:	cf 91       	pop	r28
    3dac:	1f 91       	pop	r17
    3dae:	0f 91       	pop	r16
    3db0:	0c 94 67 1d 	jmp	0x3ace	; 0x3ace <_ZN16Adafruit_SSD130615ssd1306_commandEh>

00003db4 <_ZN16Adafruit_SSD13067displayEv>:
    3db4:	af 92       	push	r10
    3db6:	bf 92       	push	r11
    3db8:	cf 92       	push	r12
    3dba:	df 92       	push	r13
    3dbc:	ef 92       	push	r14
    3dbe:	ff 92       	push	r15
    3dc0:	0f 93       	push	r16
    3dc2:	1f 93       	push	r17
    3dc4:	cf 93       	push	r28
    3dc6:	df 93       	push	r29
    3dc8:	ec 01       	movw	r28, r24
    3dca:	61 e2       	ldi	r22, 0x21	; 33
    3dcc:	0e 94 67 1d 	call	0x3ace	; 0x3ace <_ZN16Adafruit_SSD130615ssd1306_commandEh>
    3dd0:	60 e0       	ldi	r22, 0x00	; 0
    3dd2:	ce 01       	movw	r24, r28
    3dd4:	0e 94 67 1d 	call	0x3ace	; 0x3ace <_ZN16Adafruit_SSD130615ssd1306_commandEh>
    3dd8:	6f e7       	ldi	r22, 0x7F	; 127
    3dda:	ce 01       	movw	r24, r28
    3ddc:	0e 94 67 1d 	call	0x3ace	; 0x3ace <_ZN16Adafruit_SSD130615ssd1306_commandEh>
    3de0:	62 e2       	ldi	r22, 0x22	; 34
    3de2:	ce 01       	movw	r24, r28
    3de4:	0e 94 67 1d 	call	0x3ace	; 0x3ace <_ZN16Adafruit_SSD130615ssd1306_commandEh>
    3de8:	60 e0       	ldi	r22, 0x00	; 0
    3dea:	ce 01       	movw	r24, r28
    3dec:	0e 94 67 1d 	call	0x3ace	; 0x3ace <_ZN16Adafruit_SSD130615ssd1306_commandEh>
    3df0:	63 e0       	ldi	r22, 0x03	; 3
    3df2:	ce 01       	movw	r24, r28
    3df4:	0e 94 67 1d 	call	0x3ace	; 0x3ace <_ZN16Adafruit_SSD130615ssd1306_commandEh>
    3df8:	8c 8d       	ldd	r24, Y+28	; 0x1c
    3dfa:	8f 3f       	cpi	r24, 0xFF	; 255
    3dfc:	49 f1       	breq	.+82     	; 0x3e50 <_ZN16Adafruit_SSD13067displayEv+0x9c>
    3dfe:	ee a1       	ldd	r30, Y+38	; 0x26
    3e00:	ff a1       	ldd	r31, Y+39	; 0x27
    3e02:	90 81       	ld	r25, Z
    3e04:	8c a5       	ldd	r24, Y+44	; 0x2c
    3e06:	89 2b       	or	r24, r25
    3e08:	80 83       	st	Z, r24
    3e0a:	e8 a5       	ldd	r30, Y+40	; 0x28
    3e0c:	f9 a5       	ldd	r31, Y+41	; 0x29
    3e0e:	90 81       	ld	r25, Z
    3e10:	8d a5       	ldd	r24, Y+45	; 0x2d
    3e12:	89 2b       	or	r24, r25
    3e14:	80 83       	st	Z, r24
    3e16:	ee a1       	ldd	r30, Y+38	; 0x26
    3e18:	ff a1       	ldd	r31, Y+39	; 0x27
    3e1a:	90 81       	ld	r25, Z
    3e1c:	8c a5       	ldd	r24, Y+44	; 0x2c
    3e1e:	80 95       	com	r24
    3e20:	89 23       	and	r24, r25
    3e22:	80 83       	st	Z, r24
    3e24:	06 e2       	ldi	r16, 0x26	; 38
    3e26:	11 e0       	ldi	r17, 0x01	; 1
    3e28:	26 e2       	ldi	r18, 0x26	; 38
    3e2a:	e2 2e       	mov	r14, r18
    3e2c:	23 e0       	ldi	r18, 0x03	; 3
    3e2e:	f2 2e       	mov	r15, r18
    3e30:	f8 01       	movw	r30, r16
    3e32:	61 91       	ld	r22, Z+
    3e34:	8f 01       	movw	r16, r30
    3e36:	ce 01       	movw	r24, r28
    3e38:	0e 94 3a 1d 	call	0x3a74	; 0x3a74 <_ZN16Adafruit_SSD130612fastSPIwriteEh>
    3e3c:	e0 16       	cp	r14, r16
    3e3e:	f1 06       	cpc	r15, r17
    3e40:	b9 f7       	brne	.-18     	; 0x3e30 <_ZN16Adafruit_SSD13067displayEv+0x7c>
    3e42:	ee a1       	ldd	r30, Y+38	; 0x26
    3e44:	ff a1       	ldd	r31, Y+39	; 0x27
    3e46:	90 81       	ld	r25, Z
    3e48:	8c a5       	ldd	r24, Y+44	; 0x2c
    3e4a:	89 2b       	or	r24, r25
    3e4c:	80 83       	st	Z, r24
    3e4e:	30 c0       	rjmp	.+96     	; 0x3eb0 <_ZN16Adafruit_SSD13067displayEv+0xfc>
    3e50:	e0 90 b8 00 	lds	r14, 0x00B8	; 0x8000b8 <__TEXT_REGION_LENGTH__+0x7e00b8>
    3e54:	8c e0       	ldi	r24, 0x0C	; 12
    3e56:	80 93 b8 00 	sts	0x00B8, r24	; 0x8000b8 <__TEXT_REGION_LENGTH__+0x7e00b8>
    3e5a:	06 e2       	ldi	r16, 0x26	; 38
    3e5c:	11 e0       	ldi	r17, 0x01	; 1
    3e5e:	96 e2       	ldi	r25, 0x26	; 38
    3e60:	c9 2e       	mov	r12, r25
    3e62:	93 e0       	ldi	r25, 0x03	; 3
    3e64:	d9 2e       	mov	r13, r25
    3e66:	6a 8d       	ldd	r22, Y+26	; 0x1a
    3e68:	06 2e       	mov	r0, r22
    3e6a:	00 0c       	add	r0, r0
    3e6c:	77 0b       	sbc	r23, r23
    3e6e:	8b e2       	ldi	r24, 0x2B	; 43
    3e70:	95 e0       	ldi	r25, 0x05	; 5
    3e72:	0e 94 6c 20 	call	0x40d8	; 0x40d8 <_ZN7TwoWire17beginTransmissionEi>
    3e76:	60 e4       	ldi	r22, 0x40	; 64
    3e78:	8b e2       	ldi	r24, 0x2B	; 43
    3e7a:	95 e0       	ldi	r25, 0x05	; 5
    3e7c:	0e 94 19 20 	call	0x4032	; 0x4032 <_ZN7TwoWire5writeEh>
    3e80:	58 01       	movw	r10, r16
    3e82:	80 e1       	ldi	r24, 0x10	; 16
    3e84:	f8 2e       	mov	r15, r24
    3e86:	f5 01       	movw	r30, r10
    3e88:	61 91       	ld	r22, Z+
    3e8a:	5f 01       	movw	r10, r30
    3e8c:	8b e2       	ldi	r24, 0x2B	; 43
    3e8e:	95 e0       	ldi	r25, 0x05	; 5
    3e90:	0e 94 19 20 	call	0x4032	; 0x4032 <_ZN7TwoWire5writeEh>
    3e94:	fa 94       	dec	r15
    3e96:	f1 10       	cpse	r15, r1
    3e98:	f6 cf       	rjmp	.-20     	; 0x3e86 <_ZN16Adafruit_SSD13067displayEv+0xd2>
    3e9a:	8b e2       	ldi	r24, 0x2B	; 43
    3e9c:	95 e0       	ldi	r25, 0x05	; 5
    3e9e:	0e 94 81 20 	call	0x4102	; 0x4102 <_ZN7TwoWire15endTransmissionEv>
    3ea2:	00 5f       	subi	r16, 0xF0	; 240
    3ea4:	1f 4f       	sbci	r17, 0xFF	; 255
    3ea6:	c0 16       	cp	r12, r16
    3ea8:	d1 06       	cpc	r13, r17
    3eaa:	e9 f6       	brne	.-70     	; 0x3e66 <_ZN16Adafruit_SSD13067displayEv+0xb2>
    3eac:	e0 92 b8 00 	sts	0x00B8, r14	; 0x8000b8 <__TEXT_REGION_LENGTH__+0x7e00b8>
    3eb0:	df 91       	pop	r29
    3eb2:	cf 91       	pop	r28
    3eb4:	1f 91       	pop	r17
    3eb6:	0f 91       	pop	r16
    3eb8:	ff 90       	pop	r15
    3eba:	ef 90       	pop	r14
    3ebc:	df 90       	pop	r13
    3ebe:	cf 90       	pop	r12
    3ec0:	bf 90       	pop	r11
    3ec2:	af 90       	pop	r10
    3ec4:	08 95       	ret

00003ec6 <_ZN8SPIClass5beginEv>:
    3ec6:	cf 93       	push	r28
    3ec8:	cf b7       	in	r28, 0x3f	; 63
    3eca:	f8 94       	cli
    3ecc:	80 91 25 05 	lds	r24, 0x0525	; 0x800525 <_ZN8SPIClass11initializedE>
    3ed0:	81 11       	cpse	r24, r1
    3ed2:	27 c0       	rjmp	.+78     	; 0x3f22 <_ZN8SPIClass5beginEv+0x5c>
    3ed4:	ee ea       	ldi	r30, 0xAE	; 174
    3ed6:	f0 e0       	ldi	r31, 0x00	; 0
    3ed8:	84 91       	lpm	r24, Z
    3eda:	ea e9       	ldi	r30, 0x9A	; 154
    3edc:	f0 e0       	ldi	r31, 0x00	; 0
    3ede:	94 91       	lpm	r25, Z
    3ee0:	e8 2f       	mov	r30, r24
    3ee2:	f0 e0       	ldi	r31, 0x00	; 0
    3ee4:	ee 0f       	add	r30, r30
    3ee6:	ff 1f       	adc	r31, r31
    3ee8:	e4 53       	subi	r30, 0x34	; 52
    3eea:	ff 4f       	sbci	r31, 0xFF	; 255
    3eec:	a5 91       	lpm	r26, Z+
    3eee:	b4 91       	lpm	r27, Z
    3ef0:	ec 91       	ld	r30, X
    3ef2:	e9 23       	and	r30, r25
    3ef4:	21 f4       	brne	.+8      	; 0x3efe <_ZN8SPIClass5beginEv+0x38>
    3ef6:	61 e0       	ldi	r22, 0x01	; 1
    3ef8:	8a e0       	ldi	r24, 0x0A	; 10
    3efa:	0e 94 74 13 	call	0x26e8	; 0x26e8 <digitalWrite>
    3efe:	61 e0       	ldi	r22, 0x01	; 1
    3f00:	8a e0       	ldi	r24, 0x0A	; 10
    3f02:	0e 94 38 13 	call	0x2670	; 0x2670 <pinMode>
    3f06:	8c b5       	in	r24, 0x2c	; 44
    3f08:	80 61       	ori	r24, 0x10	; 16
    3f0a:	8c bd       	out	0x2c, r24	; 44
    3f0c:	8c b5       	in	r24, 0x2c	; 44
    3f0e:	80 64       	ori	r24, 0x40	; 64
    3f10:	8c bd       	out	0x2c, r24	; 44
    3f12:	61 e0       	ldi	r22, 0x01	; 1
    3f14:	8d e0       	ldi	r24, 0x0D	; 13
    3f16:	0e 94 38 13 	call	0x2670	; 0x2670 <pinMode>
    3f1a:	61 e0       	ldi	r22, 0x01	; 1
    3f1c:	8b e0       	ldi	r24, 0x0B	; 11
    3f1e:	0e 94 38 13 	call	0x2670	; 0x2670 <pinMode>
    3f22:	80 91 25 05 	lds	r24, 0x0525	; 0x800525 <_ZN8SPIClass11initializedE>
    3f26:	8f 5f       	subi	r24, 0xFF	; 255
    3f28:	80 93 25 05 	sts	0x0525, r24	; 0x800525 <_ZN8SPIClass11initializedE>
    3f2c:	cf bf       	out	0x3f, r28	; 63
    3f2e:	cf 91       	pop	r28
    3f30:	08 95       	ret

00003f32 <__vector_13>:
    3f32:	1f 92       	push	r1
    3f34:	0f 92       	push	r0
    3f36:	0f b6       	in	r0, 0x3f	; 63
    3f38:	0f 92       	push	r0
    3f3a:	11 24       	eor	r1, r1
    3f3c:	2f 93       	push	r18
    3f3e:	3f 93       	push	r19
    3f40:	4f 93       	push	r20
    3f42:	5f 93       	push	r21
    3f44:	6f 93       	push	r22
    3f46:	7f 93       	push	r23
    3f48:	8f 93       	push	r24
    3f4a:	9f 93       	push	r25
    3f4c:	af 93       	push	r26
    3f4e:	bf 93       	push	r27
    3f50:	ef 93       	push	r30
    3f52:	ff 93       	push	r31
    3f54:	e0 91 26 05 	lds	r30, 0x0526	; 0x800526 <_ZN8TimerOne11isrCallbackE>
    3f58:	f0 91 27 05 	lds	r31, 0x0527	; 0x800527 <_ZN8TimerOne11isrCallbackE+0x1>
    3f5c:	09 95       	icall
    3f5e:	ff 91       	pop	r31
    3f60:	ef 91       	pop	r30
    3f62:	bf 91       	pop	r27
    3f64:	af 91       	pop	r26
    3f66:	9f 91       	pop	r25
    3f68:	8f 91       	pop	r24
    3f6a:	7f 91       	pop	r23
    3f6c:	6f 91       	pop	r22
    3f6e:	5f 91       	pop	r21
    3f70:	4f 91       	pop	r20
    3f72:	3f 91       	pop	r19
    3f74:	2f 91       	pop	r18
    3f76:	0f 90       	pop	r0
    3f78:	0f be       	out	0x3f, r0	; 63
    3f7a:	0f 90       	pop	r0
    3f7c:	1f 90       	pop	r1
    3f7e:	18 95       	reti

00003f80 <_ZN7TwoWire9availableEv>:
    3f80:	80 91 5b 05 	lds	r24, 0x055B	; 0x80055b <_ZN7TwoWire14rxBufferLengthE>
    3f84:	90 e0       	ldi	r25, 0x00	; 0
    3f86:	20 91 5c 05 	lds	r18, 0x055C	; 0x80055c <_ZN7TwoWire13rxBufferIndexE>
    3f8a:	82 1b       	sub	r24, r18
    3f8c:	91 09       	sbc	r25, r1
    3f8e:	08 95       	ret

00003f90 <_ZN7TwoWire4readEv>:
    3f90:	90 91 5c 05 	lds	r25, 0x055C	; 0x80055c <_ZN7TwoWire13rxBufferIndexE>
    3f94:	80 91 5b 05 	lds	r24, 0x055B	; 0x80055b <_ZN7TwoWire14rxBufferLengthE>
    3f98:	98 17       	cp	r25, r24
    3f9a:	50 f4       	brcc	.+20     	; 0x3fb0 <_ZN7TwoWire4readEv+0x20>
    3f9c:	e9 2f       	mov	r30, r25
    3f9e:	f0 e0       	ldi	r31, 0x00	; 0
    3fa0:	e3 5a       	subi	r30, 0xA3	; 163
    3fa2:	fa 4f       	sbci	r31, 0xFA	; 250
    3fa4:	20 81       	ld	r18, Z
    3fa6:	30 e0       	ldi	r19, 0x00	; 0
    3fa8:	9f 5f       	subi	r25, 0xFF	; 255
    3faa:	90 93 5c 05 	sts	0x055C, r25	; 0x80055c <_ZN7TwoWire13rxBufferIndexE>
    3fae:	02 c0       	rjmp	.+4      	; 0x3fb4 <_ZN7TwoWire4readEv+0x24>
    3fb0:	2f ef       	ldi	r18, 0xFF	; 255
    3fb2:	3f ef       	ldi	r19, 0xFF	; 255
    3fb4:	c9 01       	movw	r24, r18
    3fb6:	08 95       	ret

00003fb8 <_ZN7TwoWire4peekEv>:
    3fb8:	e0 91 5c 05 	lds	r30, 0x055C	; 0x80055c <_ZN7TwoWire13rxBufferIndexE>
    3fbc:	80 91 5b 05 	lds	r24, 0x055B	; 0x80055b <_ZN7TwoWire14rxBufferLengthE>
    3fc0:	e8 17       	cp	r30, r24
    3fc2:	30 f4       	brcc	.+12     	; 0x3fd0 <_ZN7TwoWire4peekEv+0x18>
    3fc4:	f0 e0       	ldi	r31, 0x00	; 0
    3fc6:	e3 5a       	subi	r30, 0xA3	; 163
    3fc8:	fa 4f       	sbci	r31, 0xFA	; 250
    3fca:	80 81       	ld	r24, Z
    3fcc:	90 e0       	ldi	r25, 0x00	; 0
    3fce:	08 95       	ret
    3fd0:	8f ef       	ldi	r24, 0xFF	; 255
    3fd2:	9f ef       	ldi	r25, 0xFF	; 255
    3fd4:	08 95       	ret

00003fd6 <_ZN7TwoWire5flushEv>:
    3fd6:	08 95       	ret

00003fd8 <_ZN7TwoWire5writeEPKhj>:
    3fd8:	cf 92       	push	r12
    3fda:	df 92       	push	r13
    3fdc:	ef 92       	push	r14
    3fde:	ff 92       	push	r15
    3fe0:	0f 93       	push	r16
    3fe2:	1f 93       	push	r17
    3fe4:	cf 93       	push	r28
    3fe6:	df 93       	push	r29
    3fe8:	7c 01       	movw	r14, r24
    3fea:	cb 01       	movw	r24, r22
    3fec:	8a 01       	movw	r16, r20
    3fee:	20 91 37 05 	lds	r18, 0x0537	; 0x800537 <_ZN7TwoWire12transmittingE>
    3ff2:	22 23       	and	r18, r18
    3ff4:	89 f0       	breq	.+34     	; 0x4018 <_ZN7TwoWire5writeEPKhj+0x40>
    3ff6:	eb 01       	movw	r28, r22
    3ff8:	6b 01       	movw	r12, r22
    3ffa:	c4 0e       	add	r12, r20
    3ffc:	d5 1e       	adc	r13, r21
    3ffe:	cc 15       	cp	r28, r12
    4000:	dd 05       	cpc	r29, r13
    4002:	69 f0       	breq	.+26     	; 0x401e <_ZN7TwoWire5writeEPKhj+0x46>
    4004:	69 91       	ld	r22, Y+
    4006:	d7 01       	movw	r26, r14
    4008:	ed 91       	ld	r30, X+
    400a:	fc 91       	ld	r31, X
    400c:	01 90       	ld	r0, Z+
    400e:	f0 81       	ld	r31, Z
    4010:	e0 2d       	mov	r30, r0
    4012:	c7 01       	movw	r24, r14
    4014:	09 95       	icall
    4016:	f3 cf       	rjmp	.-26     	; 0x3ffe <_ZN7TwoWire5writeEPKhj+0x26>
    4018:	64 2f       	mov	r22, r20
    401a:	0e 94 ff 20 	call	0x41fe	; 0x41fe <twi_transmit>
    401e:	c8 01       	movw	r24, r16
    4020:	df 91       	pop	r29
    4022:	cf 91       	pop	r28
    4024:	1f 91       	pop	r17
    4026:	0f 91       	pop	r16
    4028:	ff 90       	pop	r15
    402a:	ef 90       	pop	r14
    402c:	df 90       	pop	r13
    402e:	cf 90       	pop	r12
    4030:	08 95       	ret

00004032 <_ZN7TwoWire5writeEh>:
    4032:	cf 93       	push	r28
    4034:	df 93       	push	r29
    4036:	1f 92       	push	r1
    4038:	cd b7       	in	r28, 0x3d	; 61
    403a:	de b7       	in	r29, 0x3e	; 62
    403c:	69 83       	std	Y+1, r22	; 0x01
    403e:	20 91 37 05 	lds	r18, 0x0537	; 0x800537 <_ZN7TwoWire12transmittingE>
    4042:	22 23       	and	r18, r18
    4044:	d1 f0       	breq	.+52     	; 0x407a <_ZN7TwoWire5writeEh+0x48>
    4046:	20 91 38 05 	lds	r18, 0x0538	; 0x800538 <_ZN7TwoWire14txBufferLengthE>
    404a:	20 32       	cpi	r18, 0x20	; 32
    404c:	40 f0       	brcs	.+16     	; 0x405e <_ZN7TwoWire5writeEh+0x2c>
    404e:	21 e0       	ldi	r18, 0x01	; 1
    4050:	30 e0       	ldi	r19, 0x00	; 0
    4052:	fc 01       	movw	r30, r24
    4054:	33 83       	std	Z+3, r19	; 0x03
    4056:	22 83       	std	Z+2, r18	; 0x02
    4058:	80 e0       	ldi	r24, 0x00	; 0
    405a:	90 e0       	ldi	r25, 0x00	; 0
    405c:	15 c0       	rjmp	.+42     	; 0x4088 <_ZN7TwoWire5writeEh+0x56>
    405e:	80 91 39 05 	lds	r24, 0x0539	; 0x800539 <_ZN7TwoWire13txBufferIndexE>
    4062:	e8 2f       	mov	r30, r24
    4064:	f0 e0       	ldi	r31, 0x00	; 0
    4066:	e6 5c       	subi	r30, 0xC6	; 198
    4068:	fa 4f       	sbci	r31, 0xFA	; 250
    406a:	99 81       	ldd	r25, Y+1	; 0x01
    406c:	90 83       	st	Z, r25
    406e:	8f 5f       	subi	r24, 0xFF	; 255
    4070:	80 93 39 05 	sts	0x0539, r24	; 0x800539 <_ZN7TwoWire13txBufferIndexE>
    4074:	80 93 38 05 	sts	0x0538, r24	; 0x800538 <_ZN7TwoWire14txBufferLengthE>
    4078:	05 c0       	rjmp	.+10     	; 0x4084 <_ZN7TwoWire5writeEh+0x52>
    407a:	61 e0       	ldi	r22, 0x01	; 1
    407c:	ce 01       	movw	r24, r28
    407e:	01 96       	adiw	r24, 0x01	; 1
    4080:	0e 94 ff 20 	call	0x41fe	; 0x41fe <twi_transmit>
    4084:	81 e0       	ldi	r24, 0x01	; 1
    4086:	90 e0       	ldi	r25, 0x00	; 0
    4088:	0f 90       	pop	r0
    408a:	df 91       	pop	r29
    408c:	cf 91       	pop	r28
    408e:	08 95       	ret

00004090 <_ZN7TwoWireC1Ev>:
    4090:	fc 01       	movw	r30, r24
    4092:	13 82       	std	Z+3, r1	; 0x03
    4094:	12 82       	std	Z+2, r1	; 0x02
    4096:	88 ee       	ldi	r24, 0xE8	; 232
    4098:	93 e0       	ldi	r25, 0x03	; 3
    409a:	a0 e0       	ldi	r26, 0x00	; 0
    409c:	b0 e0       	ldi	r27, 0x00	; 0
    409e:	84 83       	std	Z+4, r24	; 0x04
    40a0:	95 83       	std	Z+5, r25	; 0x05
    40a2:	a6 83       	std	Z+6, r26	; 0x06
    40a4:	b7 83       	std	Z+7, r27	; 0x07
    40a6:	82 ed       	ldi	r24, 0xD2	; 210
    40a8:	93 e0       	ldi	r25, 0x03	; 3
    40aa:	91 83       	std	Z+1, r25	; 0x01
    40ac:	80 83       	st	Z, r24
    40ae:	08 95       	ret

000040b0 <_ZN7TwoWire5beginEv>:
    40b0:	10 92 5c 05 	sts	0x055C, r1	; 0x80055c <_ZN7TwoWire13rxBufferIndexE>
    40b4:	10 92 5b 05 	sts	0x055B, r1	; 0x80055b <_ZN7TwoWire14rxBufferLengthE>
    40b8:	10 92 39 05 	sts	0x0539, r1	; 0x800539 <_ZN7TwoWire13txBufferIndexE>
    40bc:	10 92 38 05 	sts	0x0538, r1	; 0x800538 <_ZN7TwoWire14txBufferLengthE>
    40c0:	0c 94 8b 20 	jmp	0x4116	; 0x4116 <twi_init>

000040c4 <_ZN7TwoWire17beginTransmissionEh>:
    40c4:	81 e0       	ldi	r24, 0x01	; 1
    40c6:	80 93 37 05 	sts	0x0537, r24	; 0x800537 <_ZN7TwoWire12transmittingE>
    40ca:	60 93 5a 05 	sts	0x055A, r22	; 0x80055a <_ZN7TwoWire9txAddressE>
    40ce:	10 92 39 05 	sts	0x0539, r1	; 0x800539 <_ZN7TwoWire13txBufferIndexE>
    40d2:	10 92 38 05 	sts	0x0538, r1	; 0x800538 <_ZN7TwoWire14txBufferLengthE>
    40d6:	08 95       	ret

000040d8 <_ZN7TwoWire17beginTransmissionEi>:
    40d8:	0c 94 62 20 	jmp	0x40c4	; 0x40c4 <_ZN7TwoWire17beginTransmissionEh>

000040dc <_ZN7TwoWire15endTransmissionEh>:
    40dc:	0f 93       	push	r16
    40de:	06 2f       	mov	r16, r22
    40e0:	21 e0       	ldi	r18, 0x01	; 1
    40e2:	40 91 38 05 	lds	r20, 0x0538	; 0x800538 <_ZN7TwoWire14txBufferLengthE>
    40e6:	6a e3       	ldi	r22, 0x3A	; 58
    40e8:	75 e0       	ldi	r23, 0x05	; 5
    40ea:	80 91 5a 05 	lds	r24, 0x055A	; 0x80055a <_ZN7TwoWire9txAddressE>
    40ee:	0e 94 a9 20 	call	0x4152	; 0x4152 <twi_writeTo>
    40f2:	10 92 39 05 	sts	0x0539, r1	; 0x800539 <_ZN7TwoWire13txBufferIndexE>
    40f6:	10 92 38 05 	sts	0x0538, r1	; 0x800538 <_ZN7TwoWire14txBufferLengthE>
    40fa:	10 92 37 05 	sts	0x0537, r1	; 0x800537 <_ZN7TwoWire12transmittingE>
    40fe:	0f 91       	pop	r16
    4100:	08 95       	ret

00004102 <_ZN7TwoWire15endTransmissionEv>:
    4102:	61 e0       	ldi	r22, 0x01	; 1
    4104:	0c 94 6e 20 	jmp	0x40dc	; 0x40dc <_ZN7TwoWire15endTransmissionEh>

00004108 <_GLOBAL__sub_I__ZN7TwoWire8rxBufferE>:
    4108:	8b e2       	ldi	r24, 0x2B	; 43
    410a:	95 e0       	ldi	r25, 0x05	; 5
    410c:	0c 94 48 20 	jmp	0x4090	; 0x4090 <_ZN7TwoWireC1Ev>

00004110 <__cxa_pure_virtual>:
    4110:	0e 94 08 23 	call	0x4610	; 0x4610 <abort>

00004114 <yield>:
    4114:	08 95       	ret

00004116 <twi_init>:
    4116:	10 92 ea 05 	sts	0x05EA, r1	; 0x8005ea <twi_state>
    411a:	81 e0       	ldi	r24, 0x01	; 1
    411c:	80 93 e8 05 	sts	0x05E8, r24	; 0x8005e8 <twi_sendStop>
    4120:	10 92 e7 05 	sts	0x05E7, r1	; 0x8005e7 <twi_inRepStart>
    4124:	61 e0       	ldi	r22, 0x01	; 1
    4126:	82 e1       	ldi	r24, 0x12	; 18
    4128:	0e 94 74 13 	call	0x26e8	; 0x26e8 <digitalWrite>
    412c:	61 e0       	ldi	r22, 0x01	; 1
    412e:	83 e1       	ldi	r24, 0x13	; 19
    4130:	0e 94 74 13 	call	0x26e8	; 0x26e8 <digitalWrite>
    4134:	e9 eb       	ldi	r30, 0xB9	; 185
    4136:	f0 e0       	ldi	r31, 0x00	; 0
    4138:	80 81       	ld	r24, Z
    413a:	8e 7f       	andi	r24, 0xFE	; 254
    413c:	80 83       	st	Z, r24
    413e:	80 81       	ld	r24, Z
    4140:	8d 7f       	andi	r24, 0xFD	; 253
    4142:	80 83       	st	Z, r24
    4144:	88 e4       	ldi	r24, 0x48	; 72
    4146:	80 93 b8 00 	sts	0x00B8, r24	; 0x8000b8 <__TEXT_REGION_LENGTH__+0x7e00b8>
    414a:	85 e4       	ldi	r24, 0x45	; 69
    414c:	80 93 bc 00 	sts	0x00BC, r24	; 0x8000bc <__TEXT_REGION_LENGTH__+0x7e00bc>
    4150:	08 95       	ret

00004152 <twi_writeTo>:
    4152:	0f 93       	push	r16
    4154:	41 32       	cpi	r20, 0x21	; 33
    4156:	08 f0       	brcs	.+2      	; 0x415a <twi_writeTo+0x8>
    4158:	4a c0       	rjmp	.+148    	; 0x41ee <twi_writeTo+0x9c>
    415a:	90 91 ea 05 	lds	r25, 0x05EA	; 0x8005ea <twi_state>
    415e:	91 11       	cpse	r25, r1
    4160:	fc cf       	rjmp	.-8      	; 0x415a <twi_writeTo+0x8>
    4162:	32 e0       	ldi	r19, 0x02	; 2
    4164:	30 93 ea 05 	sts	0x05EA, r19	; 0x8005ea <twi_state>
    4168:	00 93 e8 05 	sts	0x05E8, r16	; 0x8005e8 <twi_sendStop>
    416c:	3f ef       	ldi	r19, 0xFF	; 255
    416e:	30 93 7d 05 	sts	0x057D, r19	; 0x80057d <twi_error>
    4172:	10 92 c2 05 	sts	0x05C2, r1	; 0x8005c2 <twi_masterBufferIndex>
    4176:	40 93 c1 05 	sts	0x05C1, r20	; 0x8005c1 <twi_masterBufferLength>
    417a:	56 2f       	mov	r21, r22
    417c:	a3 ec       	ldi	r26, 0xC3	; 195
    417e:	b5 e0       	ldi	r27, 0x05	; 5
    4180:	fb 01       	movw	r30, r22
    4182:	3e 2f       	mov	r19, r30
    4184:	35 1b       	sub	r19, r21
    4186:	34 17       	cp	r19, r20
    4188:	18 f4       	brcc	.+6      	; 0x4190 <twi_writeTo+0x3e>
    418a:	31 91       	ld	r19, Z+
    418c:	3d 93       	st	X+, r19
    418e:	f9 cf       	rjmp	.-14     	; 0x4182 <twi_writeTo+0x30>
    4190:	10 92 e9 05 	sts	0x05E9, r1	; 0x8005e9 <twi_slarw>
    4194:	30 91 e9 05 	lds	r19, 0x05E9	; 0x8005e9 <twi_slarw>
    4198:	88 0f       	add	r24, r24
    419a:	83 2b       	or	r24, r19
    419c:	80 93 e9 05 	sts	0x05E9, r24	; 0x8005e9 <twi_slarw>
    41a0:	80 91 e7 05 	lds	r24, 0x05E7	; 0x8005e7 <twi_inRepStart>
    41a4:	81 30       	cpi	r24, 0x01	; 1
    41a6:	61 f4       	brne	.+24     	; 0x41c0 <twi_writeTo+0x6e>
    41a8:	10 92 e7 05 	sts	0x05E7, r1	; 0x8005e7 <twi_inRepStart>
    41ac:	80 91 e9 05 	lds	r24, 0x05E9	; 0x8005e9 <twi_slarw>
    41b0:	80 93 bb 00 	sts	0x00BB, r24	; 0x8000bb <__TEXT_REGION_LENGTH__+0x7e00bb>
    41b4:	80 91 bc 00 	lds	r24, 0x00BC	; 0x8000bc <__TEXT_REGION_LENGTH__+0x7e00bc>
    41b8:	83 fd       	sbrc	r24, 3
    41ba:	f8 cf       	rjmp	.-16     	; 0x41ac <twi_writeTo+0x5a>
    41bc:	85 ec       	ldi	r24, 0xC5	; 197
    41be:	01 c0       	rjmp	.+2      	; 0x41c2 <twi_writeTo+0x70>
    41c0:	85 ee       	ldi	r24, 0xE5	; 229
    41c2:	80 93 bc 00 	sts	0x00BC, r24	; 0x8000bc <__TEXT_REGION_LENGTH__+0x7e00bc>
    41c6:	22 23       	and	r18, r18
    41c8:	21 f0       	breq	.+8      	; 0x41d2 <twi_writeTo+0x80>
    41ca:	80 91 ea 05 	lds	r24, 0x05EA	; 0x8005ea <twi_state>
    41ce:	82 30       	cpi	r24, 0x02	; 2
    41d0:	d1 f3       	breq	.-12     	; 0x41c6 <twi_writeTo+0x74>
    41d2:	80 91 7d 05 	lds	r24, 0x057D	; 0x80057d <twi_error>
    41d6:	8f 3f       	cpi	r24, 0xFF	; 255
    41d8:	79 f0       	breq	.+30     	; 0x41f8 <twi_writeTo+0xa6>
    41da:	80 91 7d 05 	lds	r24, 0x057D	; 0x80057d <twi_error>
    41de:	80 32       	cpi	r24, 0x20	; 32
    41e0:	41 f0       	breq	.+16     	; 0x41f2 <twi_writeTo+0xa0>
    41e2:	80 91 7d 05 	lds	r24, 0x057D	; 0x80057d <twi_error>
    41e6:	80 33       	cpi	r24, 0x30	; 48
    41e8:	31 f0       	breq	.+12     	; 0x41f6 <twi_writeTo+0xa4>
    41ea:	94 e0       	ldi	r25, 0x04	; 4
    41ec:	05 c0       	rjmp	.+10     	; 0x41f8 <twi_writeTo+0xa6>
    41ee:	91 e0       	ldi	r25, 0x01	; 1
    41f0:	03 c0       	rjmp	.+6      	; 0x41f8 <twi_writeTo+0xa6>
    41f2:	92 e0       	ldi	r25, 0x02	; 2
    41f4:	01 c0       	rjmp	.+2      	; 0x41f8 <twi_writeTo+0xa6>
    41f6:	93 e0       	ldi	r25, 0x03	; 3
    41f8:	89 2f       	mov	r24, r25
    41fa:	0f 91       	pop	r16
    41fc:	08 95       	ret

000041fe <twi_transmit>:
    41fe:	40 91 9f 05 	lds	r20, 0x059F	; 0x80059f <twi_txBufferLength>
    4202:	26 2f       	mov	r18, r22
    4204:	30 e0       	ldi	r19, 0x00	; 0
    4206:	24 0f       	add	r18, r20
    4208:	31 1d       	adc	r19, r1
    420a:	21 32       	cpi	r18, 0x21	; 33
    420c:	31 05       	cpc	r19, r1
    420e:	dc f4       	brge	.+54     	; 0x4246 <twi_transmit+0x48>
    4210:	20 91 ea 05 	lds	r18, 0x05EA	; 0x8005ea <twi_state>
    4214:	24 30       	cpi	r18, 0x04	; 4
    4216:	c9 f4       	brne	.+50     	; 0x424a <twi_transmit+0x4c>
    4218:	fc 01       	movw	r30, r24
    421a:	80 e0       	ldi	r24, 0x00	; 0
    421c:	90 e0       	ldi	r25, 0x00	; 0
    421e:	86 17       	cp	r24, r22
    4220:	58 f4       	brcc	.+22     	; 0x4238 <twi_transmit+0x3a>
    4222:	30 91 9f 05 	lds	r19, 0x059F	; 0x80059f <twi_txBufferLength>
    4226:	21 91       	ld	r18, Z+
    4228:	dc 01       	movw	r26, r24
    422a:	af 55       	subi	r26, 0x5F	; 95
    422c:	ba 4f       	sbci	r27, 0xFA	; 250
    422e:	a3 0f       	add	r26, r19
    4230:	b1 1d       	adc	r27, r1
    4232:	2c 93       	st	X, r18
    4234:	01 96       	adiw	r24, 0x01	; 1
    4236:	f3 cf       	rjmp	.-26     	; 0x421e <twi_transmit+0x20>
    4238:	80 91 9f 05 	lds	r24, 0x059F	; 0x80059f <twi_txBufferLength>
    423c:	68 0f       	add	r22, r24
    423e:	60 93 9f 05 	sts	0x059F, r22	; 0x80059f <twi_txBufferLength>
    4242:	80 e0       	ldi	r24, 0x00	; 0
    4244:	08 95       	ret
    4246:	81 e0       	ldi	r24, 0x01	; 1
    4248:	08 95       	ret
    424a:	82 e0       	ldi	r24, 0x02	; 2
    424c:	08 95       	ret

0000424e <twi_stop>:
    424e:	85 ed       	ldi	r24, 0xD5	; 213
    4250:	80 93 bc 00 	sts	0x00BC, r24	; 0x8000bc <__TEXT_REGION_LENGTH__+0x7e00bc>
    4254:	80 91 bc 00 	lds	r24, 0x00BC	; 0x8000bc <__TEXT_REGION_LENGTH__+0x7e00bc>
    4258:	84 fd       	sbrc	r24, 4
    425a:	fc cf       	rjmp	.-8      	; 0x4254 <twi_stop+0x6>
    425c:	10 92 ea 05 	sts	0x05EA, r1	; 0x8005ea <twi_state>
    4260:	08 95       	ret

00004262 <twi_releaseBus>:
    4262:	85 ec       	ldi	r24, 0xC5	; 197
    4264:	80 93 bc 00 	sts	0x00BC, r24	; 0x8000bc <__TEXT_REGION_LENGTH__+0x7e00bc>
    4268:	10 92 ea 05 	sts	0x05EA, r1	; 0x8005ea <twi_state>
    426c:	08 95       	ret

0000426e <__vector_24>:
    426e:	1f 92       	push	r1
    4270:	0f 92       	push	r0
    4272:	0f b6       	in	r0, 0x3f	; 63
    4274:	0f 92       	push	r0
    4276:	11 24       	eor	r1, r1
    4278:	2f 93       	push	r18
    427a:	3f 93       	push	r19
    427c:	4f 93       	push	r20
    427e:	5f 93       	push	r21
    4280:	6f 93       	push	r22
    4282:	7f 93       	push	r23
    4284:	8f 93       	push	r24
    4286:	9f 93       	push	r25
    4288:	af 93       	push	r26
    428a:	bf 93       	push	r27
    428c:	ef 93       	push	r30
    428e:	ff 93       	push	r31
    4290:	80 91 b9 00 	lds	r24, 0x00B9	; 0x8000b9 <__TEXT_REGION_LENGTH__+0x7e00b9>
    4294:	88 7f       	andi	r24, 0xF8	; 248
    4296:	80 36       	cpi	r24, 0x60	; 96
    4298:	09 f4       	brne	.+2      	; 0x429c <__vector_24+0x2e>
    429a:	9e c0       	rjmp	.+316    	; 0x43d8 <__vector_24+0x16a>
    429c:	78 f5       	brcc	.+94     	; 0x42fc <__vector_24+0x8e>
    429e:	88 32       	cpi	r24, 0x28	; 40
    42a0:	09 f4       	brne	.+2      	; 0x42a4 <__vector_24+0x36>
    42a2:	5d c0       	rjmp	.+186    	; 0x435e <__vector_24+0xf0>
    42a4:	90 f4       	brcc	.+36     	; 0x42ca <__vector_24+0x5c>
    42a6:	80 31       	cpi	r24, 0x10	; 16
    42a8:	09 f4       	brne	.+2      	; 0x42ac <__vector_24+0x3e>
    42aa:	56 c0       	rjmp	.+172    	; 0x4358 <__vector_24+0xea>
    42ac:	38 f4       	brcc	.+14     	; 0x42bc <__vector_24+0x4e>
    42ae:	88 23       	and	r24, r24
    42b0:	09 f4       	brne	.+2      	; 0x42b4 <__vector_24+0x46>
    42b2:	f5 c0       	rjmp	.+490    	; 0x449e <__vector_24+0x230>
    42b4:	88 30       	cpi	r24, 0x08	; 8
    42b6:	09 f4       	brne	.+2      	; 0x42ba <__vector_24+0x4c>
    42b8:	4f c0       	rjmp	.+158    	; 0x4358 <__vector_24+0xea>
    42ba:	f5 c0       	rjmp	.+490    	; 0x44a6 <__vector_24+0x238>
    42bc:	88 31       	cpi	r24, 0x18	; 24
    42be:	09 f4       	brne	.+2      	; 0x42c2 <__vector_24+0x54>
    42c0:	4e c0       	rjmp	.+156    	; 0x435e <__vector_24+0xf0>
    42c2:	80 32       	cpi	r24, 0x20	; 32
    42c4:	09 f4       	brne	.+2      	; 0x42c8 <__vector_24+0x5a>
    42c6:	5f c0       	rjmp	.+190    	; 0x4386 <__vector_24+0x118>
    42c8:	ee c0       	rjmp	.+476    	; 0x44a6 <__vector_24+0x238>
    42ca:	80 34       	cpi	r24, 0x40	; 64
    42cc:	09 f4       	brne	.+2      	; 0x42d0 <__vector_24+0x62>
    42ce:	6a c0       	rjmp	.+212    	; 0x43a4 <__vector_24+0x136>
    42d0:	58 f4       	brcc	.+22     	; 0x42e8 <__vector_24+0x7a>
    42d2:	80 33       	cpi	r24, 0x30	; 48
    42d4:	09 f4       	brne	.+2      	; 0x42d8 <__vector_24+0x6a>
    42d6:	57 c0       	rjmp	.+174    	; 0x4386 <__vector_24+0x118>
    42d8:	88 33       	cpi	r24, 0x38	; 56
    42da:	09 f0       	breq	.+2      	; 0x42de <__vector_24+0x70>
    42dc:	e4 c0       	rjmp	.+456    	; 0x44a6 <__vector_24+0x238>
    42de:	80 93 7d 05 	sts	0x057D, r24	; 0x80057d <twi_error>
    42e2:	0e 94 31 21 	call	0x4262	; 0x4262 <twi_releaseBus>
    42e6:	df c0       	rjmp	.+446    	; 0x44a6 <__vector_24+0x238>
    42e8:	80 35       	cpi	r24, 0x50	; 80
    42ea:	09 f4       	brne	.+2      	; 0x42ee <__vector_24+0x80>
    42ec:	4f c0       	rjmp	.+158    	; 0x438c <__vector_24+0x11e>
    42ee:	88 35       	cpi	r24, 0x58	; 88
    42f0:	09 f4       	brne	.+2      	; 0x42f4 <__vector_24+0x86>
    42f2:	5d c0       	rjmp	.+186    	; 0x43ae <__vector_24+0x140>
    42f4:	88 34       	cpi	r24, 0x48	; 72
    42f6:	09 f0       	breq	.+2      	; 0x42fa <__vector_24+0x8c>
    42f8:	d6 c0       	rjmp	.+428    	; 0x44a6 <__vector_24+0x238>
    42fa:	d3 c0       	rjmp	.+422    	; 0x44a2 <__vector_24+0x234>
    42fc:	88 39       	cpi	r24, 0x98	; 152
    42fe:	09 f4       	brne	.+2      	; 0x4302 <__vector_24+0x94>
    4300:	c4 c0       	rjmp	.+392    	; 0x448a <__vector_24+0x21c>
    4302:	a8 f4       	brcc	.+42     	; 0x432e <__vector_24+0xc0>
    4304:	88 37       	cpi	r24, 0x78	; 120
    4306:	09 f4       	brne	.+2      	; 0x430a <__vector_24+0x9c>
    4308:	67 c0       	rjmp	.+206    	; 0x43d8 <__vector_24+0x16a>
    430a:	38 f4       	brcc	.+14     	; 0x431a <__vector_24+0xac>
    430c:	88 36       	cpi	r24, 0x68	; 104
    430e:	09 f4       	brne	.+2      	; 0x4312 <__vector_24+0xa4>
    4310:	63 c0       	rjmp	.+198    	; 0x43d8 <__vector_24+0x16a>
    4312:	80 37       	cpi	r24, 0x70	; 112
    4314:	09 f4       	brne	.+2      	; 0x4318 <__vector_24+0xaa>
    4316:	60 c0       	rjmp	.+192    	; 0x43d8 <__vector_24+0x16a>
    4318:	c6 c0       	rjmp	.+396    	; 0x44a6 <__vector_24+0x238>
    431a:	88 38       	cpi	r24, 0x88	; 136
    431c:	09 f4       	brne	.+2      	; 0x4320 <__vector_24+0xb2>
    431e:	b5 c0       	rjmp	.+362    	; 0x448a <__vector_24+0x21c>
    4320:	80 39       	cpi	r24, 0x90	; 144
    4322:	09 f4       	brne	.+2      	; 0x4326 <__vector_24+0xb8>
    4324:	5f c0       	rjmp	.+190    	; 0x43e4 <__vector_24+0x176>
    4326:	80 38       	cpi	r24, 0x80	; 128
    4328:	09 f0       	breq	.+2      	; 0x432c <__vector_24+0xbe>
    432a:	bd c0       	rjmp	.+378    	; 0x44a6 <__vector_24+0x238>
    432c:	5b c0       	rjmp	.+182    	; 0x43e4 <__vector_24+0x176>
    432e:	80 3b       	cpi	r24, 0xB0	; 176
    4330:	09 f4       	brne	.+2      	; 0x4334 <__vector_24+0xc6>
    4332:	83 c0       	rjmp	.+262    	; 0x443a <__vector_24+0x1cc>
    4334:	38 f4       	brcc	.+14     	; 0x4344 <__vector_24+0xd6>
    4336:	80 3a       	cpi	r24, 0xA0	; 160
    4338:	09 f4       	brne	.+2      	; 0x433c <__vector_24+0xce>
    433a:	66 c0       	rjmp	.+204    	; 0x4408 <__vector_24+0x19a>
    433c:	88 3a       	cpi	r24, 0xA8	; 168
    433e:	09 f4       	brne	.+2      	; 0x4342 <__vector_24+0xd4>
    4340:	7c c0       	rjmp	.+248    	; 0x443a <__vector_24+0x1cc>
    4342:	b1 c0       	rjmp	.+354    	; 0x44a6 <__vector_24+0x238>
    4344:	80 3c       	cpi	r24, 0xC0	; 192
    4346:	09 f4       	brne	.+2      	; 0x434a <__vector_24+0xdc>
    4348:	a4 c0       	rjmp	.+328    	; 0x4492 <__vector_24+0x224>
    434a:	88 3c       	cpi	r24, 0xC8	; 200
    434c:	09 f4       	brne	.+2      	; 0x4350 <__vector_24+0xe2>
    434e:	a1 c0       	rjmp	.+322    	; 0x4492 <__vector_24+0x224>
    4350:	88 3b       	cpi	r24, 0xB8	; 184
    4352:	09 f4       	brne	.+2      	; 0x4356 <__vector_24+0xe8>
    4354:	87 c0       	rjmp	.+270    	; 0x4464 <__vector_24+0x1f6>
    4356:	a7 c0       	rjmp	.+334    	; 0x44a6 <__vector_24+0x238>
    4358:	80 91 e9 05 	lds	r24, 0x05E9	; 0x8005e9 <twi_slarw>
    435c:	10 c0       	rjmp	.+32     	; 0x437e <__vector_24+0x110>
    435e:	90 91 c2 05 	lds	r25, 0x05C2	; 0x8005c2 <twi_masterBufferIndex>
    4362:	80 91 c1 05 	lds	r24, 0x05C1	; 0x8005c1 <twi_masterBufferLength>
    4366:	98 17       	cp	r25, r24
    4368:	70 f5       	brcc	.+92     	; 0x43c6 <__vector_24+0x158>
    436a:	e0 91 c2 05 	lds	r30, 0x05C2	; 0x8005c2 <twi_masterBufferIndex>
    436e:	81 e0       	ldi	r24, 0x01	; 1
    4370:	8e 0f       	add	r24, r30
    4372:	80 93 c2 05 	sts	0x05C2, r24	; 0x8005c2 <twi_masterBufferIndex>
    4376:	f0 e0       	ldi	r31, 0x00	; 0
    4378:	ed 53       	subi	r30, 0x3D	; 61
    437a:	fa 4f       	sbci	r31, 0xFA	; 250
    437c:	80 81       	ld	r24, Z
    437e:	80 93 bb 00 	sts	0x00BB, r24	; 0x8000bb <__TEXT_REGION_LENGTH__+0x7e00bb>
    4382:	85 ec       	ldi	r24, 0xC5	; 197
    4384:	83 c0       	rjmp	.+262    	; 0x448c <__vector_24+0x21e>
    4386:	80 93 7d 05 	sts	0x057D, r24	; 0x80057d <twi_error>
    438a:	8b c0       	rjmp	.+278    	; 0x44a2 <__vector_24+0x234>
    438c:	e0 91 c2 05 	lds	r30, 0x05C2	; 0x8005c2 <twi_masterBufferIndex>
    4390:	81 e0       	ldi	r24, 0x01	; 1
    4392:	8e 0f       	add	r24, r30
    4394:	80 93 c2 05 	sts	0x05C2, r24	; 0x8005c2 <twi_masterBufferIndex>
    4398:	80 91 bb 00 	lds	r24, 0x00BB	; 0x8000bb <__TEXT_REGION_LENGTH__+0x7e00bb>
    439c:	f0 e0       	ldi	r31, 0x00	; 0
    439e:	ed 53       	subi	r30, 0x3D	; 61
    43a0:	fa 4f       	sbci	r31, 0xFA	; 250
    43a2:	80 83       	st	Z, r24
    43a4:	90 91 c2 05 	lds	r25, 0x05C2	; 0x8005c2 <twi_masterBufferIndex>
    43a8:	80 91 c1 05 	lds	r24, 0x05C1	; 0x8005c1 <twi_masterBufferLength>
    43ac:	6b c0       	rjmp	.+214    	; 0x4484 <__vector_24+0x216>
    43ae:	e0 91 c2 05 	lds	r30, 0x05C2	; 0x8005c2 <twi_masterBufferIndex>
    43b2:	81 e0       	ldi	r24, 0x01	; 1
    43b4:	8e 0f       	add	r24, r30
    43b6:	80 93 c2 05 	sts	0x05C2, r24	; 0x8005c2 <twi_masterBufferIndex>
    43ba:	80 91 bb 00 	lds	r24, 0x00BB	; 0x8000bb <__TEXT_REGION_LENGTH__+0x7e00bb>
    43be:	f0 e0       	ldi	r31, 0x00	; 0
    43c0:	ed 53       	subi	r30, 0x3D	; 61
    43c2:	fa 4f       	sbci	r31, 0xFA	; 250
    43c4:	80 83       	st	Z, r24
    43c6:	80 91 e8 05 	lds	r24, 0x05E8	; 0x8005e8 <twi_sendStop>
    43ca:	81 11       	cpse	r24, r1
    43cc:	6a c0       	rjmp	.+212    	; 0x44a2 <__vector_24+0x234>
    43ce:	81 e0       	ldi	r24, 0x01	; 1
    43d0:	80 93 e7 05 	sts	0x05E7, r24	; 0x8005e7 <twi_inRepStart>
    43d4:	84 ea       	ldi	r24, 0xA4	; 164
    43d6:	5e c0       	rjmp	.+188    	; 0x4494 <__vector_24+0x226>
    43d8:	83 e0       	ldi	r24, 0x03	; 3
    43da:	80 93 ea 05 	sts	0x05EA, r24	; 0x8005ea <twi_state>
    43de:	10 92 7e 05 	sts	0x057E, r1	; 0x80057e <twi_rxBufferIndex>
    43e2:	cf cf       	rjmp	.-98     	; 0x4382 <__vector_24+0x114>
    43e4:	80 91 7e 05 	lds	r24, 0x057E	; 0x80057e <twi_rxBufferIndex>
    43e8:	80 32       	cpi	r24, 0x20	; 32
    43ea:	08 f0       	brcs	.+2      	; 0x43ee <__vector_24+0x180>
    43ec:	4e c0       	rjmp	.+156    	; 0x448a <__vector_24+0x21c>
    43ee:	e0 91 7e 05 	lds	r30, 0x057E	; 0x80057e <twi_rxBufferIndex>
    43f2:	81 e0       	ldi	r24, 0x01	; 1
    43f4:	8e 0f       	add	r24, r30
    43f6:	80 93 7e 05 	sts	0x057E, r24	; 0x80057e <twi_rxBufferIndex>
    43fa:	80 91 bb 00 	lds	r24, 0x00BB	; 0x8000bb <__TEXT_REGION_LENGTH__+0x7e00bb>
    43fe:	f0 e0       	ldi	r31, 0x00	; 0
    4400:	e1 58       	subi	r30, 0x81	; 129
    4402:	fa 4f       	sbci	r31, 0xFA	; 250
    4404:	80 83       	st	Z, r24
    4406:	bd cf       	rjmp	.-134    	; 0x4382 <__vector_24+0x114>
    4408:	0e 94 31 21 	call	0x4262	; 0x4262 <twi_releaseBus>
    440c:	80 91 7e 05 	lds	r24, 0x057E	; 0x80057e <twi_rxBufferIndex>
    4410:	80 32       	cpi	r24, 0x20	; 32
    4412:	30 f4       	brcc	.+12     	; 0x4420 <__vector_24+0x1b2>
    4414:	e0 91 7e 05 	lds	r30, 0x057E	; 0x80057e <twi_rxBufferIndex>
    4418:	f0 e0       	ldi	r31, 0x00	; 0
    441a:	e1 58       	subi	r30, 0x81	; 129
    441c:	fa 4f       	sbci	r31, 0xFA	; 250
    441e:	10 82       	st	Z, r1
    4420:	60 91 7e 05 	lds	r22, 0x057E	; 0x80057e <twi_rxBufferIndex>
    4424:	70 e0       	ldi	r23, 0x00	; 0
    4426:	e0 91 e3 05 	lds	r30, 0x05E3	; 0x8005e3 <twi_onSlaveReceive>
    442a:	f0 91 e4 05 	lds	r31, 0x05E4	; 0x8005e4 <twi_onSlaveReceive+0x1>
    442e:	8f e7       	ldi	r24, 0x7F	; 127
    4430:	95 e0       	ldi	r25, 0x05	; 5
    4432:	09 95       	icall
    4434:	10 92 7e 05 	sts	0x057E, r1	; 0x80057e <twi_rxBufferIndex>
    4438:	36 c0       	rjmp	.+108    	; 0x44a6 <__vector_24+0x238>
    443a:	84 e0       	ldi	r24, 0x04	; 4
    443c:	80 93 ea 05 	sts	0x05EA, r24	; 0x8005ea <twi_state>
    4440:	10 92 a0 05 	sts	0x05A0, r1	; 0x8005a0 <twi_txBufferIndex>
    4444:	10 92 9f 05 	sts	0x059F, r1	; 0x80059f <twi_txBufferLength>
    4448:	e0 91 e5 05 	lds	r30, 0x05E5	; 0x8005e5 <twi_onSlaveTransmit>
    444c:	f0 91 e6 05 	lds	r31, 0x05E6	; 0x8005e6 <twi_onSlaveTransmit+0x1>
    4450:	09 95       	icall
    4452:	80 91 9f 05 	lds	r24, 0x059F	; 0x80059f <twi_txBufferLength>
    4456:	81 11       	cpse	r24, r1
    4458:	05 c0       	rjmp	.+10     	; 0x4464 <__vector_24+0x1f6>
    445a:	81 e0       	ldi	r24, 0x01	; 1
    445c:	80 93 9f 05 	sts	0x059F, r24	; 0x80059f <twi_txBufferLength>
    4460:	10 92 a1 05 	sts	0x05A1, r1	; 0x8005a1 <twi_txBuffer>
    4464:	e0 91 a0 05 	lds	r30, 0x05A0	; 0x8005a0 <twi_txBufferIndex>
    4468:	81 e0       	ldi	r24, 0x01	; 1
    446a:	8e 0f       	add	r24, r30
    446c:	80 93 a0 05 	sts	0x05A0, r24	; 0x8005a0 <twi_txBufferIndex>
    4470:	f0 e0       	ldi	r31, 0x00	; 0
    4472:	ef 55       	subi	r30, 0x5F	; 95
    4474:	fa 4f       	sbci	r31, 0xFA	; 250
    4476:	80 81       	ld	r24, Z
    4478:	80 93 bb 00 	sts	0x00BB, r24	; 0x8000bb <__TEXT_REGION_LENGTH__+0x7e00bb>
    447c:	90 91 a0 05 	lds	r25, 0x05A0	; 0x8005a0 <twi_txBufferIndex>
    4480:	80 91 9f 05 	lds	r24, 0x059F	; 0x80059f <twi_txBufferLength>
    4484:	98 17       	cp	r25, r24
    4486:	08 f4       	brcc	.+2      	; 0x448a <__vector_24+0x21c>
    4488:	7c cf       	rjmp	.-264    	; 0x4382 <__vector_24+0x114>
    448a:	85 e8       	ldi	r24, 0x85	; 133
    448c:	80 93 bc 00 	sts	0x00BC, r24	; 0x8000bc <__TEXT_REGION_LENGTH__+0x7e00bc>
    4490:	0a c0       	rjmp	.+20     	; 0x44a6 <__vector_24+0x238>
    4492:	85 ec       	ldi	r24, 0xC5	; 197
    4494:	80 93 bc 00 	sts	0x00BC, r24	; 0x8000bc <__TEXT_REGION_LENGTH__+0x7e00bc>
    4498:	10 92 ea 05 	sts	0x05EA, r1	; 0x8005ea <twi_state>
    449c:	04 c0       	rjmp	.+8      	; 0x44a6 <__vector_24+0x238>
    449e:	10 92 7d 05 	sts	0x057D, r1	; 0x80057d <twi_error>
    44a2:	0e 94 27 21 	call	0x424e	; 0x424e <twi_stop>
    44a6:	ff 91       	pop	r31
    44a8:	ef 91       	pop	r30
    44aa:	bf 91       	pop	r27
    44ac:	af 91       	pop	r26
    44ae:	9f 91       	pop	r25
    44b0:	8f 91       	pop	r24
    44b2:	7f 91       	pop	r23
    44b4:	6f 91       	pop	r22
    44b6:	5f 91       	pop	r21
    44b8:	4f 91       	pop	r20
    44ba:	3f 91       	pop	r19
    44bc:	2f 91       	pop	r18
    44be:	0f 90       	pop	r0
    44c0:	0f be       	out	0x3f, r0	; 63
    44c2:	0f 90       	pop	r0
    44c4:	1f 90       	pop	r1
    44c6:	18 95       	reti

000044c8 <__cmpsf2>:
    44c8:	0e 94 69 22 	call	0x44d2	; 0x44d2 <__fp_cmp>
    44cc:	08 f4       	brcc	.+2      	; 0x44d0 <__cmpsf2+0x8>
    44ce:	81 e0       	ldi	r24, 0x01	; 1
    44d0:	08 95       	ret

000044d2 <__fp_cmp>:
    44d2:	99 0f       	add	r25, r25
    44d4:	00 08       	sbc	r0, r0
    44d6:	55 0f       	add	r21, r21
    44d8:	aa 0b       	sbc	r26, r26
    44da:	e0 e8       	ldi	r30, 0x80	; 128
    44dc:	fe ef       	ldi	r31, 0xFE	; 254
    44de:	16 16       	cp	r1, r22
    44e0:	17 06       	cpc	r1, r23
    44e2:	e8 07       	cpc	r30, r24
    44e4:	f9 07       	cpc	r31, r25
    44e6:	c0 f0       	brcs	.+48     	; 0x4518 <__fp_cmp+0x46>
    44e8:	12 16       	cp	r1, r18
    44ea:	13 06       	cpc	r1, r19
    44ec:	e4 07       	cpc	r30, r20
    44ee:	f5 07       	cpc	r31, r21
    44f0:	98 f0       	brcs	.+38     	; 0x4518 <__fp_cmp+0x46>
    44f2:	62 1b       	sub	r22, r18
    44f4:	73 0b       	sbc	r23, r19
    44f6:	84 0b       	sbc	r24, r20
    44f8:	95 0b       	sbc	r25, r21
    44fa:	39 f4       	brne	.+14     	; 0x450a <__fp_cmp+0x38>
    44fc:	0a 26       	eor	r0, r26
    44fe:	61 f0       	breq	.+24     	; 0x4518 <__fp_cmp+0x46>
    4500:	23 2b       	or	r18, r19
    4502:	24 2b       	or	r18, r20
    4504:	25 2b       	or	r18, r21
    4506:	21 f4       	brne	.+8      	; 0x4510 <__fp_cmp+0x3e>
    4508:	08 95       	ret
    450a:	0a 26       	eor	r0, r26
    450c:	09 f4       	brne	.+2      	; 0x4510 <__fp_cmp+0x3e>
    450e:	a1 40       	sbci	r26, 0x01	; 1
    4510:	a6 95       	lsr	r26
    4512:	8f ef       	ldi	r24, 0xFF	; 255
    4514:	81 1d       	adc	r24, r1
    4516:	81 1d       	adc	r24, r1
    4518:	08 95       	ret

0000451a <__gesf2>:
    451a:	0e 94 69 22 	call	0x44d2	; 0x44d2 <__fp_cmp>
    451e:	08 f4       	brcc	.+2      	; 0x4522 <__gesf2+0x8>
    4520:	8f ef       	ldi	r24, 0xFF	; 255
    4522:	08 95       	ret

00004524 <__unordsf2>:
    4524:	0e 94 69 22 	call	0x44d2	; 0x44d2 <__fp_cmp>
    4528:	88 0b       	sbc	r24, r24
    452a:	99 0b       	sbc	r25, r25
    452c:	08 95       	ret

0000452e <__mulsi3>:
    452e:	db 01       	movw	r26, r22
    4530:	8f 93       	push	r24
    4532:	9f 93       	push	r25
    4534:	0e 94 e8 22 	call	0x45d0	; 0x45d0 <__muluhisi3>
    4538:	bf 91       	pop	r27
    453a:	af 91       	pop	r26
    453c:	a2 9f       	mul	r26, r18
    453e:	80 0d       	add	r24, r0
    4540:	91 1d       	adc	r25, r1
    4542:	a3 9f       	mul	r26, r19
    4544:	90 0d       	add	r25, r0
    4546:	b2 9f       	mul	r27, r18
    4548:	90 0d       	add	r25, r0
    454a:	11 24       	eor	r1, r1
    454c:	08 95       	ret

0000454e <__udivmodsi4>:
    454e:	a1 e2       	ldi	r26, 0x21	; 33
    4550:	1a 2e       	mov	r1, r26
    4552:	aa 1b       	sub	r26, r26
    4554:	bb 1b       	sub	r27, r27
    4556:	fd 01       	movw	r30, r26
    4558:	0d c0       	rjmp	.+26     	; 0x4574 <__udivmodsi4_ep>

0000455a <__udivmodsi4_loop>:
    455a:	aa 1f       	adc	r26, r26
    455c:	bb 1f       	adc	r27, r27
    455e:	ee 1f       	adc	r30, r30
    4560:	ff 1f       	adc	r31, r31
    4562:	a2 17       	cp	r26, r18
    4564:	b3 07       	cpc	r27, r19
    4566:	e4 07       	cpc	r30, r20
    4568:	f5 07       	cpc	r31, r21
    456a:	20 f0       	brcs	.+8      	; 0x4574 <__udivmodsi4_ep>
    456c:	a2 1b       	sub	r26, r18
    456e:	b3 0b       	sbc	r27, r19
    4570:	e4 0b       	sbc	r30, r20
    4572:	f5 0b       	sbc	r31, r21

00004574 <__udivmodsi4_ep>:
    4574:	66 1f       	adc	r22, r22
    4576:	77 1f       	adc	r23, r23
    4578:	88 1f       	adc	r24, r24
    457a:	99 1f       	adc	r25, r25
    457c:	1a 94       	dec	r1
    457e:	69 f7       	brne	.-38     	; 0x455a <__udivmodsi4_loop>
    4580:	60 95       	com	r22
    4582:	70 95       	com	r23
    4584:	80 95       	com	r24
    4586:	90 95       	com	r25
    4588:	9b 01       	movw	r18, r22
    458a:	ac 01       	movw	r20, r24
    458c:	bd 01       	movw	r22, r26
    458e:	cf 01       	movw	r24, r30
    4590:	08 95       	ret

00004592 <__divmodsi4>:
    4592:	05 2e       	mov	r0, r21
    4594:	97 fb       	bst	r25, 7
    4596:	1e f4       	brtc	.+6      	; 0x459e <__divmodsi4+0xc>
    4598:	00 94       	com	r0
    459a:	0e 94 e0 22 	call	0x45c0	; 0x45c0 <__negsi2>
    459e:	57 fd       	sbrc	r21, 7
    45a0:	07 d0       	rcall	.+14     	; 0x45b0 <__divmodsi4_neg2>
    45a2:	0e 94 a7 22 	call	0x454e	; 0x454e <__udivmodsi4>
    45a6:	07 fc       	sbrc	r0, 7
    45a8:	03 d0       	rcall	.+6      	; 0x45b0 <__divmodsi4_neg2>
    45aa:	4e f4       	brtc	.+18     	; 0x45be <__divmodsi4_exit>
    45ac:	0c 94 e0 22 	jmp	0x45c0	; 0x45c0 <__negsi2>

000045b0 <__divmodsi4_neg2>:
    45b0:	50 95       	com	r21
    45b2:	40 95       	com	r20
    45b4:	30 95       	com	r19
    45b6:	21 95       	neg	r18
    45b8:	3f 4f       	sbci	r19, 0xFF	; 255
    45ba:	4f 4f       	sbci	r20, 0xFF	; 255
    45bc:	5f 4f       	sbci	r21, 0xFF	; 255

000045be <__divmodsi4_exit>:
    45be:	08 95       	ret

000045c0 <__negsi2>:
    45c0:	90 95       	com	r25
    45c2:	80 95       	com	r24
    45c4:	70 95       	com	r23
    45c6:	61 95       	neg	r22
    45c8:	7f 4f       	sbci	r23, 0xFF	; 255
    45ca:	8f 4f       	sbci	r24, 0xFF	; 255
    45cc:	9f 4f       	sbci	r25, 0xFF	; 255
    45ce:	08 95       	ret

000045d0 <__muluhisi3>:
    45d0:	0e 94 f9 22 	call	0x45f2	; 0x45f2 <__umulhisi3>
    45d4:	a5 9f       	mul	r26, r21
    45d6:	90 0d       	add	r25, r0
    45d8:	b4 9f       	mul	r27, r20
    45da:	90 0d       	add	r25, r0
    45dc:	a4 9f       	mul	r26, r20
    45de:	80 0d       	add	r24, r0
    45e0:	91 1d       	adc	r25, r1
    45e2:	11 24       	eor	r1, r1
    45e4:	08 95       	ret

000045e6 <__tablejump2__>:
    45e6:	ee 0f       	add	r30, r30
    45e8:	ff 1f       	adc	r31, r31
    45ea:	05 90       	lpm	r0, Z+
    45ec:	f4 91       	lpm	r31, Z
    45ee:	e0 2d       	mov	r30, r0
    45f0:	09 94       	ijmp

000045f2 <__umulhisi3>:
    45f2:	a2 9f       	mul	r26, r18
    45f4:	b0 01       	movw	r22, r0
    45f6:	b3 9f       	mul	r27, r19
    45f8:	c0 01       	movw	r24, r0
    45fa:	a3 9f       	mul	r26, r19
    45fc:	70 0d       	add	r23, r0
    45fe:	81 1d       	adc	r24, r1
    4600:	11 24       	eor	r1, r1
    4602:	91 1d       	adc	r25, r1
    4604:	b2 9f       	mul	r27, r18
    4606:	70 0d       	add	r23, r0
    4608:	81 1d       	adc	r24, r1
    460a:	11 24       	eor	r1, r1
    460c:	91 1d       	adc	r25, r1
    460e:	08 95       	ret

00004610 <abort>:
    4610:	81 e0       	ldi	r24, 0x01	; 1
    4612:	90 e0       	ldi	r25, 0x00	; 0
    4614:	f8 94       	cli
    4616:	0c 94 0d 23 	jmp	0x461a	; 0x461a <_exit>

0000461a <_exit>:
    461a:	f8 94       	cli

0000461c <__stop_program>:
    461c:	ff cf       	rjmp	.-2      	; 0x461c <__stop_program>
